---
triple:          'arm64-apple-darwin'
binary-path:     mypython
relocations:
  - { offsetInCU: 0x46, offset: 0x46, size: 0x8, addend: 0x0, symName: __Z9isKeywordRKNSt3__112basic_stringIcNS_11char_traitsIcEENS_9allocatorIcEEEE, symObjAddr: 0x178, symBinAddr: 0x1000007A4, symSize: 0x208 }
  - { offsetInCU: 0x71, offset: 0x71, size: 0x8, addend: 0x0, symName: __ZZ9isKeywordRKNSt3__112basic_stringIcNS_11char_traitsIcEENS_9allocatorIcEEEEE8keywords, symObjAddr: 0xE5150, symBinAddr: 0x100028000, symSize: 0x0 }
  - { offsetInCU: 0xFF32, offset: 0xFF32, size: 0x8, addend: 0x0, symName: __ZNSt3__16copy_nB8ue170006IPKcmPcEENS_9enable_ifIXsr37__has_random_access_iterator_categoryIT_EE5valueET1_E4typeES5_T0_S6_, symObjAddr: 0xE170, symBinAddr: 0x10000E79C, symSize: 0x44 }
  - { offsetInCU: 0x116F4, offset: 0x116F4, size: 0x8, addend: 0x0, symName: __ZNSt3__17advanceB8ue170006INS_21__tree_const_iteratorINS_12__value_typeINS_12basic_stringIcNS_11char_traitsIcEENS_9allocatorIcEEEEP6parserEEPNS_11__tree_nodeISB_PvEElEEllvEEvRT_T0_, symObjAddr: 0x18894, symBinAddr: 0x100018EC0, symSize: 0x38 }
  - { offsetInCU: 0x11785, offset: 0x11785, size: 0x8, addend: 0x0, symName: __ZNSt3__17advanceB8ue170006INS_21__tree_const_iteratorINS_12__value_typeINS_12basic_stringIcNS_11char_traitsIcEENS_9allocatorIcEEEEiEEPNS_11__tree_nodeIS9_PvEElEEllvEEvRT_T0_, symObjAddr: 0x19C64, symBinAddr: 0x10001A290, symSize: 0x38 }
  - { offsetInCU: 0x11D4B, offset: 0x11D4B, size: 0x8, addend: 0x0, symName: __ZNSt3__124__put_character_sequenceB8ue170006IcNS_11char_traitsIcEEEERNS_13basic_ostreamIT_T0_EES7_PKS4_m, symObjAddr: 0x1B950, symBinAddr: 0x10001BF7C, symSize: 0x1F4 }
  - { offsetInCU: 0x151AD, offset: 0x151AD, size: 0x8, addend: 0x0, symName: __ZNSt3__1lsB8ue170006IcNS_11char_traitsIcEENS_9allocatorIcEEEERNS_13basic_ostreamIT_T0_EES9_RKNS_12basic_stringIS6_S7_T1_EE, symObjAddr: 0x60, symBinAddr: 0x10000068C, symSize: 0x4C }
  - { offsetInCU: 0x15205, offset: 0x15205, size: 0x8, addend: 0x0, symName: __ZNSt3__1lsB8ue170006INS_11char_traitsIcEEEERNS_13basic_ostreamIcT_EES6_PKc, symObjAddr: 0xAC, symBinAddr: 0x1000006D8, symSize: 0x48 }
  - { offsetInCU: 0x1524B, offset: 0x1524B, size: 0x8, addend: 0x0, symName: __ZNSt3__14endlB8ue170006IcNS_11char_traitsIcEEEERNS_13basic_ostreamIT_T0_EES7_, symObjAddr: 0x120, symBinAddr: 0x10000074C, symSize: 0x58 }
  - { offsetInCU: 0x1528B, offset: 0x1528B, size: 0x8, addend: 0x0, symName: __ZNSt3__1eqB8ue170006INS_9allocatorIcEEEEbRKNS_12basic_stringIcNS_11char_traitsIcEET_EES9_, symObjAddr: 0x3C0, symBinAddr: 0x1000009EC, symSize: 0x148 }
  - { offsetInCU: 0x152FE, offset: 0x152FE, size: 0x8, addend: 0x0, symName: __ZNSt3__1eqB8ue170006IcNS_11char_traitsIcEENS_9allocatorIcEEEEbRKNS_12basic_stringIT_T0_T1_EEPKS6_, symObjAddr: 0x4490, symBinAddr: 0x100004ABC, symSize: 0xC0 }
  - { offsetInCU: 0x15365, offset: 0x15365, size: 0x8, addend: 0x0, symName: __ZNSt3__1neB8ue170006IcNS_11char_traitsIcEENS_9allocatorIcEEEEbRKNS_12basic_stringIT_T0_T1_EEPKS6_, symObjAddr: 0x4720, symBinAddr: 0x100004D4C, symSize: 0x34 }
  - { offsetInCU: 0x16164, offset: 0x16164, size: 0x8, addend: 0x0, symName: __ZNSt3__17getlineB8ue170006IcNS_11char_traitsIcEENS_9allocatorIcEEEERNS_13basic_istreamIT_T0_EES9_RNS_12basic_stringIS6_S7_T1_EE, symObjAddr: 0x4BDC, symBinAddr: 0x100005208, symSize: 0x5C }
  - { offsetInCU: 0x161FA, offset: 0x161FA, size: 0x8, addend: 0x0, symName: __ZNSt3__112__to_addressB8ue170006IP5parseEEPT_S4_, symObjAddr: 0x5CF8, symBinAddr: 0x100006324, symSize: 0x14 }
  - { offsetInCU: 0x1622F, offset: 0x1622F, size: 0x8, addend: 0x0, symName: __ZNSt3__130__libcpp_is_constant_evaluatedB8ue170006Ev, symObjAddr: 0x5E00, symBinAddr: 0x10000642C, symSize: 0xC }
  - { offsetInCU: 0x1624C, offset: 0x1624C, size: 0x8, addend: 0x0, symName: __ZNSt3__119__libcpp_deallocateB8ue170006EPvmm, symObjAddr: 0x5E0C, symBinAddr: 0x100006438, symSize: 0x30 }
  - { offsetInCU: 0x16294, offset: 0x16294, size: 0x8, addend: 0x0, symName: __ZNSt3__127__do_deallocate_handle_sizeB8ue170006IJEEEvPvmDpT_, symObjAddr: 0x5E3C, symBinAddr: 0x100006468, symSize: 0x28 }
  - { offsetInCU: 0x162D2, offset: 0x162D2, size: 0x8, addend: 0x0, symName: __ZNSt3__124__libcpp_operator_deleteB8ue170006IJPvEEEvDpT_, symObjAddr: 0x5E64, symBinAddr: 0x100006490, symSize: 0x24 }
  - { offsetInCU: 0x16307, offset: 0x16307, size: 0x8, addend: 0x0, symName: __ZNSt3__13maxB8ue170006ImEERKT_S3_S3_, symObjAddr: 0x75C4, symBinAddr: 0x100007BF0, symSize: 0x2C }
  - { offsetInCU: 0x1634A, offset: 0x1634A, size: 0x8, addend: 0x0, symName: __ZNSt3__13minB8ue170006ImEERKT_S3_S3_, symObjAddr: 0x75F0, symBinAddr: 0x100007C1C, symSize: 0x2C }
  - { offsetInCU: 0x1658E, offset: 0x1658E, size: 0x8, addend: 0x0, symName: __ZNSt3__13minB8ue170006ImNS_6__lessIvvEEEERKT_S5_S5_T0_, symObjAddr: 0x767C, symBinAddr: 0x100007CA8, symSize: 0x54 }
  - { offsetInCU: 0x1662D, offset: 0x1662D, size: 0x8, addend: 0x0, symName: __ZNSt3__120__throw_length_errorB8ue170006EPKc, symObjAddr: 0x7758, symBinAddr: 0x100007D84, symSize: 0x64 }
  - { offsetInCU: 0x16657, offset: 0x16657, size: 0x8, addend: 0x0, symName: __ZNSt3__13maxB8ue170006ImNS_6__lessIvvEEEERKT_S5_S5_T0_, symObjAddr: 0x783C, symBinAddr: 0x100007E68, symSize: 0x54 }
  - { offsetInCU: 0x166B1, offset: 0x166B1, size: 0x8, addend: 0x0, symName: __ZNSt3__119__allocate_at_leastB8ue170006INS_9allocatorIP5parseEEEENS_19__allocation_resultINS_16allocator_traitsIT_E7pointerEEERS7_m, symObjAddr: 0x79A0, symBinAddr: 0x100007FCC, symSize: 0x40 }
  - { offsetInCU: 0x166F4, offset: 0x166F4, size: 0x8, addend: 0x0, symName: __ZNSt3__117__libcpp_allocateB8ue170006Emm, symObjAddr: 0x7B50, symBinAddr: 0x10000817C, symSize: 0x28 }
  - { offsetInCU: 0x16731, offset: 0x16731, size: 0x8, addend: 0x0, symName: __ZNSt3__121__libcpp_operator_newB8ue170006IJmEEEPvDpT_, symObjAddr: 0x7B78, symBinAddr: 0x1000081A4, symSize: 0x24 }
  - { offsetInCU: 0x1676A, offset: 0x1676A, size: 0x8, addend: 0x0, symName: __ZNSt3__142__uninitialized_allocator_move_if_noexceptB8ue170006INS_9allocatorIP5parseEENS_16reverse_iteratorIPS3_EES7_S3_vEET1_RT_T0_SB_S8_, symObjAddr: 0x7C00, symBinAddr: 0x10000822C, symSize: 0xE8 }
  - { offsetInCU: 0x167E7, offset: 0x167E7, size: 0x8, addend: 0x0, symName: __ZNSt3__14swapB8ue170006IPP5parseEEvRT_S5_, symObjAddr: 0x7D34, symBinAddr: 0x100008360, symSize: 0x3C }
  - { offsetInCU: 0x16838, offset: 0x16838, size: 0x8, addend: 0x0, symName: __ZNSt3__1neB8ue170006IPP5parseS3_EEbRKNS_16reverse_iteratorIT_EERKNS4_IT0_EE, symObjAddr: 0x7E1C, symBinAddr: 0x100008448, symSize: 0x48 }
  - { offsetInCU: 0x168A9, offset: 0x168A9, size: 0x8, addend: 0x0, symName: __ZNSt3__114__construct_atB8ue170006IP5parseJS2_EPS2_EEPT_S5_DpOT0_, symObjAddr: 0x7E64, symBinAddr: 0x100008490, symSize: 0x2C }
  - { offsetInCU: 0x16919, offset: 0x16919, size: 0x8, addend: 0x0, symName: __ZNSt3__112__to_addressB8ue170006INS_16reverse_iteratorIPP5parseEEvEEu7__decayIDTclsr19__to_address_helperIT_EE6__callclsr3stdE7declvalIRKS6_EEEEES8_, symObjAddr: 0x7E90, symBinAddr: 0x1000084BC, symSize: 0x24 }
  - { offsetInCU: 0x1694F, offset: 0x1694F, size: 0x8, addend: 0x0, symName: __ZNSt3__14moveB8ue170006INS_16reverse_iteratorIPP5parseEES5_EET0_T_S7_S6_, symObjAddr: 0x7EFC, symBinAddr: 0x100008528, symSize: 0x78 }
  - { offsetInCU: 0x169D2, offset: 0x169D2, size: 0x8, addend: 0x0, symName: __ZNSt3__16__moveB8ue170006INS_17_ClassicAlgPolicyENS_16reverse_iteratorIPP5parseEES6_S6_EENS_4pairIT0_T2_EES8_T1_S9_, symObjAddr: 0x7FE4, symBinAddr: 0x100008610, symSize: 0x64 }
  - { offsetInCU: 0x16A3E, offset: 0x16A3E, size: 0x8, addend: 0x0, symName: __ZNSt3__123__dispatch_copy_or_moveB8ue170006INS_17_ClassicAlgPolicyENS_11__move_loopIS1_EENS_14__move_trivialENS_16reverse_iteratorIPP5parseEES9_S9_EENS_4pairIT2_T4_EESB_T3_SC_, symObjAddr: 0x8048, symBinAddr: 0x100008674, symSize: 0x64 }
  - { offsetInCU: 0x16ABC, offset: 0x16ABC, size: 0x8, addend: 0x0, symName: __ZNSt3__121__unwrap_and_dispatchB8ue170006INS_10__overloadINS_11__move_loopINS_17_ClassicAlgPolicyEEENS_14__move_trivialEEENS_16reverse_iteratorIPP5parseEESB_SB_Li0EEENS_4pairIT0_T2_EESD_T1_SE_, symObjAddr: 0x80AC, symBinAddr: 0x1000086D8, symSize: 0x12C }
  - { offsetInCU: 0x16B4C, offset: 0x16B4C, size: 0x8, addend: 0x0, symName: __ZNSt3__114__unwrap_rangeB8ue170006INS_16reverse_iteratorIPP5parseEES5_EENS_4pairIT0_S7_EET_S9_, symObjAddr: 0x81D8, symBinAddr: 0x100008804, symSize: 0x84 }
  - { offsetInCU: 0x16CDF, offset: 0x16CDF, size: 0x8, addend: 0x0, symName: __ZNSt3__113__unwrap_iterB8ue170006INS_16reverse_iteratorIPP5parseEENS_18__unwrap_iter_implIS5_Lb0EEELi0EEEDTclsrT0_8__unwrapclsr3stdE7declvalIT_EEEES9_, symObjAddr: 0x82FC, symBinAddr: 0x100008928, symSize: 0x44 }
  - { offsetInCU: 0x16D23, offset: 0x16D23, size: 0x8, addend: 0x0, symName: __ZNSt3__19make_pairB8ue170006INS_16reverse_iteratorIPP5parseEES5_EENS_4pairINS_18__unwrap_ref_decayIT_E4typeENS7_IT0_E4typeEEEOS8_OSB_, symObjAddr: 0x8340, symBinAddr: 0x10000896C, symSize: 0x38 }
  - { offsetInCU: 0x16D72, offset: 0x16D72, size: 0x8, addend: 0x0, symName: __ZNSt3__114__rewrap_rangeB8ue170006INS_16reverse_iteratorIPP5parseEES5_EET_S6_T0_, symObjAddr: 0x8378, symBinAddr: 0x1000089A4, symSize: 0x5C }
  - { offsetInCU: 0x16DBE, offset: 0x16DBE, size: 0x8, addend: 0x0, symName: __ZNSt3__113__rewrap_iterB8ue170006INS_16reverse_iteratorIPP5parseEES5_NS_18__unwrap_iter_implIS5_Lb0EEEEET_S8_T0_, symObjAddr: 0x83D4, symBinAddr: 0x100008A00, symSize: 0x88 }
  - { offsetInCU: 0x16EF8, offset: 0x16EF8, size: 0x8, addend: 0x0, symName: __ZNSt3__1neB8ue170006ERKNS_14__map_iteratorINS_15__tree_iteratorINS_12__value_typeINS_12basic_stringIcNS_11char_traitsIcEENS_9allocatorIcEEEEiEEPNS_11__tree_nodeIS9_PvEElEEEESH_, symObjAddr: 0xA314, symBinAddr: 0x10000A940, symSize: 0x30 }
  - { offsetInCU: 0x16F35, offset: 0x16F35, size: 0x8, addend: 0x0, symName: __ZNSt3__1ltB8ue170006IcNS_11char_traitsIcEENS_9allocatorIcEEEEbRKNS_12basic_stringIT_T0_T1_EESB_, symObjAddr: 0xB094, symBinAddr: 0x10000B6C0, symSize: 0x38 }
  - { offsetInCU: 0x16F8D, offset: 0x16F8D, size: 0x8, addend: 0x0, symName: __ZNSt3__112__to_addressB8ue170006IKcEEPT_S3_, symObjAddr: 0xB4C0, symBinAddr: 0x10000BAEC, symSize: 0x14 }
  - { offsetInCU: 0x17013, offset: 0x17013, size: 0x8, addend: 0x0, symName: __ZNSt3__127__tree_balance_after_insertB8ue170006IPNS_16__tree_node_baseIPvEEEEvT_S5_, symObjAddr: 0xBA08, symBinAddr: 0x10000C034, symSize: 0x340 }
  - { offsetInCU: 0x17087, offset: 0x17087, size: 0x8, addend: 0x0, symName: __ZNSt3__120__tree_is_left_childB8ue170006IPNS_16__tree_node_baseIPvEEEEbT_, symObjAddr: 0xBD88, symBinAddr: 0x10000C3B4, symSize: 0x2C }
  - { offsetInCU: 0x170BC, offset: 0x170BC, size: 0x8, addend: 0x0, symName: __ZNSt3__118__tree_left_rotateB8ue170006IPNS_16__tree_node_baseIPvEEEEvT_, symObjAddr: 0xBDB4, symBinAddr: 0x10000C3E0, symSize: 0xEC }
  - { offsetInCU: 0x170FE, offset: 0x170FE, size: 0x8, addend: 0x0, symName: __ZNSt3__119__tree_right_rotateB8ue170006IPNS_16__tree_node_baseIPvEEEEvT_, symObjAddr: 0xBEA0, symBinAddr: 0x10000C4CC, symSize: 0xCC }
  - { offsetInCU: 0x172B5, offset: 0x172B5, size: 0x8, addend: 0x0, symName: __ZNSt3__1plB8ue170006IcNS_11char_traitsIcEENS_9allocatorIcEEEENS_12basic_stringIT_T0_T1_EERKS9_PKS6_, symObjAddr: 0xC1F0, symBinAddr: 0x10000C81C, symSize: 0x11C }
  - { offsetInCU: 0x17847, offset: 0x17847, size: 0x8, addend: 0x0, symName: __ZNSt3__1rsB8ue170006IcNS_11char_traitsIcEENS_9allocatorIcEEEERNS_13basic_istreamIT_T0_EES9_RNS_12basic_stringIS6_S7_T1_EE, symObjAddr: 0xC5BC, symBinAddr: 0x10000CBE8, symSize: 0x324 }
  - { offsetInCU: 0x17921, offset: 0x17921, size: 0x8, addend: 0x0, symName: __ZNSt3__112__to_addressB8ue170006INS_12basic_stringIcNS_11char_traitsIcEENS_9allocatorIcEEEEEEPT_S8_, symObjAddr: 0xD42C, symBinAddr: 0x10000DA58, symSize: 0x14 }
  - { offsetInCU: 0x17956, offset: 0x17956, size: 0x8, addend: 0x0, symName: __ZNSt3__112__to_addressB8ue170006IPNS_12basic_stringIcNS_11char_traitsIcEENS_9allocatorIcEEEEEEPT_S9_, symObjAddr: 0xD6F8, symBinAddr: 0x10000DD24, symSize: 0x14 }
  - { offsetInCU: 0x1798B, offset: 0x1798B, size: 0x8, addend: 0x0, symName: __ZNSt3__112__to_addressB8ue170006IcEEPT_S2_, symObjAddr: 0xD8E0, symBinAddr: 0x10000DF0C, symSize: 0x14 }
  - { offsetInCU: 0x179C0, offset: 0x179C0, size: 0x8, addend: 0x0, symName: __ZNSt3__118__constexpr_strlenB8ue170006EPKc, symObjAddr: 0xDA04, symBinAddr: 0x10000E030, symSize: 0x24 }
  - { offsetInCU: 0x17C21, offset: 0x17C21, size: 0x8, addend: 0x0, symName: __ZNSt3__14copyB8ue170006IPKcPcEET0_T_S5_S4_, symObjAddr: 0xE1B4, symBinAddr: 0x10000E7E0, symSize: 0x40 }
  - { offsetInCU: 0x17C7B, offset: 0x17C7B, size: 0x8, addend: 0x0, symName: __ZNSt3__16__copyB8ue170006INS_17_ClassicAlgPolicyEPKcS3_PcEENS_4pairIT0_T2_EES6_T1_S7_, symObjAddr: 0xE1F4, symBinAddr: 0x10000E820, symSize: 0x44 }
  - { offsetInCU: 0x17CE7, offset: 0x17CE7, size: 0x8, addend: 0x0, symName: __ZNSt3__123__dispatch_copy_or_moveB8ue170006INS_17_ClassicAlgPolicyENS_11__copy_loopIS1_EENS_14__copy_trivialEPKcS6_PcEENS_4pairIT2_T4_EES9_T3_SA_, symObjAddr: 0xE238, symBinAddr: 0x10000E864, symSize: 0x44 }
  - { offsetInCU: 0x17D65, offset: 0x17D65, size: 0x8, addend: 0x0, symName: __ZNSt3__121__unwrap_and_dispatchB8ue170006INS_10__overloadINS_11__copy_loopINS_17_ClassicAlgPolicyEEENS_14__copy_trivialEEEPKcS8_PcLi0EEENS_4pairIT0_T2_EESB_T1_SC_, symObjAddr: 0xE27C, symBinAddr: 0x10000E8A8, symSize: 0xB4 }
  - { offsetInCU: 0x17DF3, offset: 0x17DF3, size: 0x8, addend: 0x0, symName: __ZNSt3__114__unwrap_rangeB8ue170006IPKcS2_EENS_4pairIT0_S4_EET_S6_, symObjAddr: 0xE330, symBinAddr: 0x10000E95C, symSize: 0x60 }
  - { offsetInCU: 0x17F32, offset: 0x17F32, size: 0x8, addend: 0x0, symName: __ZNSt3__113__unwrap_iterB8ue170006IPcNS_18__unwrap_iter_implIS1_Lb1EEELi0EEEDTclsrT0_8__unwrapclsr3stdE7declvalIT_EEEES5_, symObjAddr: 0xE3D8, symBinAddr: 0x10000EA04, symSize: 0x24 }
  - { offsetInCU: 0x17F76, offset: 0x17F76, size: 0x8, addend: 0x0, symName: __ZNSt3__19make_pairB8ue170006IPKcPcEENS_4pairINS_18__unwrap_ref_decayIT_E4typeENS5_IT0_E4typeEEEOS6_OS9_, symObjAddr: 0xE3FC, symBinAddr: 0x10000EA28, symSize: 0x38 }
  - { offsetInCU: 0x17FC5, offset: 0x17FC5, size: 0x8, addend: 0x0, symName: __ZNSt3__114__rewrap_rangeB8ue170006IPKcS2_EET_S3_T0_, symObjAddr: 0xE434, symBinAddr: 0x10000EA60, symSize: 0x2C }
  - { offsetInCU: 0x18011, offset: 0x18011, size: 0x8, addend: 0x0, symName: __ZNSt3__113__rewrap_iterB8ue170006IPcS1_NS_18__unwrap_iter_implIS1_Lb1EEEEET_S4_T0_, symObjAddr: 0xE460, symBinAddr: 0x10000EA8C, symSize: 0x50 }
  - { offsetInCU: 0x18066, offset: 0x18066, size: 0x8, addend: 0x0, symName: __ZNSt3__19make_pairB8ue170006IPKcS2_EENS_4pairINS_18__unwrap_ref_decayIT_E4typeENS4_IT0_E4typeEEEOS5_OS8_, symObjAddr: 0xE4B0, symBinAddr: 0x10000EADC, symSize: 0x38 }
  - { offsetInCU: 0x180B5, offset: 0x180B5, size: 0x8, addend: 0x0, symName: __ZNSt3__113__unwrap_iterB8ue170006IPKcNS_18__unwrap_iter_implIS2_Lb1EEELi0EEEDTclsrT0_8__unwrapclsr3stdE7declvalIT_EEEES6_, symObjAddr: 0xE4E8, symBinAddr: 0x10000EB14, symSize: 0x24 }
  - { offsetInCU: 0x181F9, offset: 0x181F9, size: 0x8, addend: 0x0, symName: __ZNSt3__119__copy_trivial_implB8ue170006IKccEENS_4pairIPT_PT0_EES4_S4_S6_, symObjAddr: 0xE5A0, symBinAddr: 0x10000EBCC, symSize: 0x78 }
  - { offsetInCU: 0x18261, offset: 0x18261, size: 0x8, addend: 0x0, symName: __ZNSt3__119__constexpr_memmoveB8ue170006IcKcLi0EEEPT_S3_PT0_NS_15__element_countE, symObjAddr: 0xE618, symBinAddr: 0x10000EC44, symSize: 0xA0 }
  - { offsetInCU: 0x182CF, offset: 0x182CF, size: 0x8, addend: 0x0, symName: __ZNSt3__19make_pairB8ue170006IRPKcPcEENS_4pairINS_18__unwrap_ref_decayIT_E4typeENS6_IT0_E4typeEEEOS7_OSA_, symObjAddr: 0xE6B8, symBinAddr: 0x10000ECE4, symSize: 0x38 }
  - { offsetInCU: 0x18371, offset: 0x18371, size: 0x8, addend: 0x0, symName: __ZNSt3__113__rewrap_iterB8ue170006IPKcS2_NS_18__unwrap_iter_implIS2_Lb1EEEEET_S5_T0_, symObjAddr: 0xE784, symBinAddr: 0x10000EDB0, symSize: 0x50 }
  - { offsetInCU: 0x183C6, offset: 0x183C6, size: 0x8, addend: 0x0, symName: __ZNSt3__16fill_nB8ue170006IPcmcEET_S2_T0_RKT1_, symObjAddr: 0xE864, symBinAddr: 0x10000EE90, symSize: 0x44 }
  - { offsetInCU: 0x18429, offset: 0x18429, size: 0x8, addend: 0x0, symName: __ZNSt3__18__fill_nB8ue170006IPcmcEET_S2_T0_RKT1_, symObjAddr: 0xE8A8, symBinAddr: 0x10000EED4, symSize: 0x64 }
  - { offsetInCU: 0x1848C, offset: 0x1848C, size: 0x8, addend: 0x0, symName: __ZNSt3__121__convert_to_integralB8ue170006Em, symObjAddr: 0xE90C, symBinAddr: 0x10000EF38, symSize: 0x14 }
  - { offsetInCU: 0x1888D, offset: 0x1888D, size: 0x8, addend: 0x0, symName: __ZNSt3__14swapB8ue170006IPPNS_12basic_stringIcNS_11char_traitsIcEENS_9allocatorIcEEEEEEvRT_SA_, symObjAddr: 0x103D8, symBinAddr: 0x100010A04, symSize: 0x3C }
  - { offsetInCU: 0x188DE, offset: 0x188DE, size: 0x8, addend: 0x0, symName: __ZNSt3__14moveB8ue170006IPPNS_12basic_stringIcNS_11char_traitsIcEENS_9allocatorIcEEEES8_EET0_T_SA_S9_, symObjAddr: 0x10508, symBinAddr: 0x100010B34, symSize: 0x40 }
  - { offsetInCU: 0x18954, offset: 0x18954, size: 0x8, addend: 0x0, symName: __ZNSt3__16__moveB8ue170006INS_17_ClassicAlgPolicyEPPNS_12basic_stringIcNS_11char_traitsIcEENS_9allocatorIcEEEES9_S9_EENS_4pairIT0_T2_EESB_T1_SC_, symObjAddr: 0x10610, symBinAddr: 0x100010C3C, symSize: 0x44 }
  - { offsetInCU: 0x189C0, offset: 0x189C0, size: 0x8, addend: 0x0, symName: __ZNSt3__123__dispatch_copy_or_moveB8ue170006INS_17_ClassicAlgPolicyENS_11__move_loopIS1_EENS_14__move_trivialEPPNS_12basic_stringIcNS_11char_traitsIcEENS_9allocatorIcEEEESC_SC_EENS_4pairIT2_T4_EESE_T3_SF_, symObjAddr: 0x10654, symBinAddr: 0x100010C80, symSize: 0x44 }
  - { offsetInCU: 0x18A3E, offset: 0x18A3E, size: 0x8, addend: 0x0, symName: __ZNSt3__121__unwrap_and_dispatchB8ue170006INS_10__overloadINS_11__move_loopINS_17_ClassicAlgPolicyEEENS_14__move_trivialEEEPPNS_12basic_stringIcNS_11char_traitsIcEENS_9allocatorIcEEEESE_SE_Li0EEENS_4pairIT0_T2_EESG_T1_SH_, symObjAddr: 0x10698, symBinAddr: 0x100010CC4, symSize: 0xB4 }
  - { offsetInCU: 0x18ACC, offset: 0x18ACC, size: 0x8, addend: 0x0, symName: __ZNSt3__114__unwrap_rangeB8ue170006IPPNS_12basic_stringIcNS_11char_traitsIcEENS_9allocatorIcEEEES8_EENS_4pairIT0_SA_EET_SC_, symObjAddr: 0x1074C, symBinAddr: 0x100010D78, symSize: 0x60 }
  - { offsetInCU: 0x18C47, offset: 0x18C47, size: 0x8, addend: 0x0, symName: __ZNSt3__113__unwrap_iterB8ue170006IPPNS_12basic_stringIcNS_11char_traitsIcEENS_9allocatorIcEEEENS_18__unwrap_iter_implIS8_Lb1EEELi0EEEDTclsrT0_8__unwrapclsr3stdE7declvalIT_EEEESC_, symObjAddr: 0x107F4, symBinAddr: 0x100010E20, symSize: 0x24 }
  - { offsetInCU: 0x18C8B, offset: 0x18C8B, size: 0x8, addend: 0x0, symName: __ZNSt3__19make_pairB8ue170006IPPNS_12basic_stringIcNS_11char_traitsIcEENS_9allocatorIcEEEES8_EENS_4pairINS_18__unwrap_ref_decayIT_E4typeENSA_IT0_E4typeEEEOSB_OSE_, symObjAddr: 0x10818, symBinAddr: 0x100010E44, symSize: 0x38 }
  - { offsetInCU: 0x18CDA, offset: 0x18CDA, size: 0x8, addend: 0x0, symName: __ZNSt3__114__rewrap_rangeB8ue170006IPPNS_12basic_stringIcNS_11char_traitsIcEENS_9allocatorIcEEEES8_EET_S9_T0_, symObjAddr: 0x10850, symBinAddr: 0x100010E7C, symSize: 0x2C }
  - { offsetInCU: 0x18D26, offset: 0x18D26, size: 0x8, addend: 0x0, symName: __ZNSt3__113__rewrap_iterB8ue170006IPPNS_12basic_stringIcNS_11char_traitsIcEENS_9allocatorIcEEEES8_NS_18__unwrap_iter_implIS8_Lb1EEEEET_SB_T0_, symObjAddr: 0x1087C, symBinAddr: 0x100010EA8, symSize: 0x50 }
  - { offsetInCU: 0x18D7B, offset: 0x18D7B, size: 0x8, addend: 0x0, symName: __ZNSt3__119__copy_trivial_implB8ue170006IPNS_12basic_stringIcNS_11char_traitsIcEENS_9allocatorIcEEEES7_EENS_4pairIPT_PT0_EESA_SA_SC_, symObjAddr: 0x108CC, symBinAddr: 0x100010EF8, symSize: 0x80 }
  - { offsetInCU: 0x18DE3, offset: 0x18DE3, size: 0x8, addend: 0x0, symName: __ZNSt3__119__constexpr_memmoveB8ue170006IPNS_12basic_stringIcNS_11char_traitsIcEENS_9allocatorIcEEEES7_Li0EEEPT_S9_PT0_NS_15__element_countE, symObjAddr: 0x1094C, symBinAddr: 0x100010F78, symSize: 0xA0 }
  - { offsetInCU: 0x18E51, offset: 0x18E51, size: 0x8, addend: 0x0, symName: __ZNSt3__19make_pairB8ue170006IRPPNS_12basic_stringIcNS_11char_traitsIcEENS_9allocatorIcEEEES8_EENS_4pairINS_18__unwrap_ref_decayIT_E4typeENSB_IT0_E4typeEEEOSC_OSF_, symObjAddr: 0x109EC, symBinAddr: 0x100011018, symSize: 0x38 }
  - { offsetInCU: 0x18EF3, offset: 0x18EF3, size: 0x8, addend: 0x0, symName: __ZNSt3__18distanceB8ue170006INS_13move_iteratorIPPNS_12basic_stringIcNS_11char_traitsIcEENS_9allocatorIcEEEEEEEENS_15iterator_traitsIT_E15difference_typeESC_SC_, symObjAddr: 0x10BEC, symBinAddr: 0x100011218, symSize: 0x3C }
  - { offsetInCU: 0x18F36, offset: 0x18F36, size: 0x8, addend: 0x0, symName: __ZNSt3__110__distanceB8ue170006INS_13move_iteratorIPPNS_12basic_stringIcNS_11char_traitsIcEENS_9allocatorIcEEEEEEEENS_15iterator_traitsIT_E15difference_typeESC_SC_NS_26random_access_iterator_tagE, symObjAddr: 0x10DF0, symBinAddr: 0x10001141C, symSize: 0x30 }
  - { offsetInCU: 0x18F83, offset: 0x18F83, size: 0x8, addend: 0x0, symName: __ZNSt3__1miB8ue170006IPPNS_12basic_stringIcNS_11char_traitsIcEENS_9allocatorIcEEEES8_EENS_13move_iteratorIT_E15difference_typeERKSB_RKNS9_IT0_EE, symObjAddr: 0x10E20, symBinAddr: 0x10001144C, symSize: 0x48 }
  - { offsetInCU: 0x18FD2, offset: 0x18FD2, size: 0x8, addend: 0x0, symName: __ZNSt3__113move_backwardB8ue170006IPPNS_12basic_stringIcNS_11char_traitsIcEENS_9allocatorIcEEEES8_EET0_T_SA_S9_, symObjAddr: 0x10F90, symBinAddr: 0x1000115BC, symSize: 0x40 }
  - { offsetInCU: 0x1902C, offset: 0x1902C, size: 0x8, addend: 0x0, symName: __ZNSt3__115__move_backwardB8ue170006INS_17_ClassicAlgPolicyEPPNS_12basic_stringIcNS_11char_traitsIcEENS_9allocatorIcEEEES9_S9_EENS_4pairIT0_T2_EESB_T1_SC_, symObjAddr: 0x10FD0, symBinAddr: 0x1000115FC, symSize: 0x44 }
  - { offsetInCU: 0x19098, offset: 0x19098, size: 0x8, addend: 0x0, symName: __ZNSt3__123__dispatch_copy_or_moveB8ue170006INS_17_ClassicAlgPolicyENS_20__move_backward_loopIS1_EENS_23__move_backward_trivialEPPNS_12basic_stringIcNS_11char_traitsIcEENS_9allocatorIcEEEESC_SC_EENS_4pairIT2_T4_EESE_T3_SF_, symObjAddr: 0x11014, symBinAddr: 0x100011640, symSize: 0x44 }
  - { offsetInCU: 0x19116, offset: 0x19116, size: 0x8, addend: 0x0, symName: __ZNSt3__121__unwrap_and_dispatchB8ue170006INS_10__overloadINS_20__move_backward_loopINS_17_ClassicAlgPolicyEEENS_23__move_backward_trivialEEEPPNS_12basic_stringIcNS_11char_traitsIcEENS_9allocatorIcEEEESE_SE_Li0EEENS_4pairIT0_T2_EESG_T1_SH_, symObjAddr: 0x11058, symBinAddr: 0x100011684, symSize: 0xB4 }
  - { offsetInCU: 0x19226, offset: 0x19226, size: 0x8, addend: 0x0, symName: __ZNSt3__128__copy_backward_trivial_implB8ue170006IPNS_12basic_stringIcNS_11char_traitsIcEENS_9allocatorIcEEEES7_EENS_4pairIPT_PT0_EESA_SA_SC_, symObjAddr: 0x11154, symBinAddr: 0x100011780, symSize: 0x90 }
  - { offsetInCU: 0x1928E, offset: 0x1928E, size: 0x8, addend: 0x0, symName: __ZNSt3__19make_pairB8ue170006IRPPNS_12basic_stringIcNS_11char_traitsIcEENS_9allocatorIcEEEES9_EENS_4pairINS_18__unwrap_ref_decayIT_E4typeENSB_IT0_E4typeEEEOSC_OSF_, symObjAddr: 0x111E4, symBinAddr: 0x100011810, symSize: 0x38 }
  - { offsetInCU: 0x192DD, offset: 0x192DD, size: 0x8, addend: 0x0, symName: __ZNSt3__119__allocate_at_leastB8ue170006INS_9allocatorIPNS_12basic_stringIcNS_11char_traitsIcEENS1_IcEEEEEEEENS_19__allocation_resultINS_16allocator_traitsIT_E7pointerEEERSB_m, symObjAddr: 0x1132C, symBinAddr: 0x100011958, symSize: 0x40 }
  - { offsetInCU: 0x19320, offset: 0x19320, size: 0x8, addend: 0x0, symName: __ZNSt3__112__to_addressB8ue170006IiEEPT_S2_, symObjAddr: 0x124D8, symBinAddr: 0x100012B04, symSize: 0x14 }
  - { offsetInCU: 0x19355, offset: 0x19355, size: 0x8, addend: 0x0, symName: __ZNSt3__112__to_addressB8ue170006IPiEEPT_S3_, symObjAddr: 0x12790, symBinAddr: 0x100012DBC, symSize: 0x14 }
  - { offsetInCU: 0x1938A, offset: 0x1938A, size: 0x8, addend: 0x0, symName: __ZNSt3__19use_facetB8ue170006INS_5ctypeIcEEEERKT_RKNS_6localeE, symObjAddr: 0x12C44, symBinAddr: 0x100013270, symSize: 0x2C }
  - { offsetInCU: 0x19BF1, offset: 0x19BF1, size: 0x8, addend: 0x0, symName: __ZNSt3__14swapB8ue170006IPPiEEvRT_S4_, symObjAddr: 0x1459C, symBinAddr: 0x100014BC8, symSize: 0x3C }
  - { offsetInCU: 0x19C42, offset: 0x19C42, size: 0x8, addend: 0x0, symName: __ZNSt3__14moveB8ue170006IPPiS2_EET0_T_S4_S3_, symObjAddr: 0x146CC, symBinAddr: 0x100014CF8, symSize: 0x40 }
  - { offsetInCU: 0x19C9C, offset: 0x19C9C, size: 0x8, addend: 0x0, symName: __ZNSt3__16__moveB8ue170006INS_17_ClassicAlgPolicyEPPiS3_S3_EENS_4pairIT0_T2_EES5_T1_S6_, symObjAddr: 0x147D4, symBinAddr: 0x100014E00, symSize: 0x44 }
  - { offsetInCU: 0x19D08, offset: 0x19D08, size: 0x8, addend: 0x0, symName: __ZNSt3__123__dispatch_copy_or_moveB8ue170006INS_17_ClassicAlgPolicyENS_11__move_loopIS1_EENS_14__move_trivialEPPiS6_S6_EENS_4pairIT2_T4_EES8_T3_S9_, symObjAddr: 0x14818, symBinAddr: 0x100014E44, symSize: 0x44 }
  - { offsetInCU: 0x19D86, offset: 0x19D86, size: 0x8, addend: 0x0, symName: __ZNSt3__121__unwrap_and_dispatchB8ue170006INS_10__overloadINS_11__move_loopINS_17_ClassicAlgPolicyEEENS_14__move_trivialEEEPPiS8_S8_Li0EEENS_4pairIT0_T2_EESA_T1_SB_, symObjAddr: 0x1485C, symBinAddr: 0x100014E88, symSize: 0xB4 }
  - { offsetInCU: 0x19E14, offset: 0x19E14, size: 0x8, addend: 0x0, symName: __ZNSt3__114__unwrap_rangeB8ue170006IPPiS2_EENS_4pairIT0_S4_EET_S6_, symObjAddr: 0x14910, symBinAddr: 0x100014F3C, symSize: 0x60 }
  - { offsetInCU: 0x19F0D, offset: 0x19F0D, size: 0x8, addend: 0x0, symName: __ZNSt3__113__unwrap_iterB8ue170006IPPiNS_18__unwrap_iter_implIS2_Lb1EEELi0EEEDTclsrT0_8__unwrapclsr3stdE7declvalIT_EEEES6_, symObjAddr: 0x149B8, symBinAddr: 0x100014FE4, symSize: 0x24 }
  - { offsetInCU: 0x19F51, offset: 0x19F51, size: 0x8, addend: 0x0, symName: __ZNSt3__19make_pairB8ue170006IPPiS2_EENS_4pairINS_18__unwrap_ref_decayIT_E4typeENS4_IT0_E4typeEEEOS5_OS8_, symObjAddr: 0x149DC, symBinAddr: 0x100015008, symSize: 0x38 }
  - { offsetInCU: 0x19FA0, offset: 0x19FA0, size: 0x8, addend: 0x0, symName: __ZNSt3__114__rewrap_rangeB8ue170006IPPiS2_EET_S3_T0_, symObjAddr: 0x14A14, symBinAddr: 0x100015040, symSize: 0x2C }
  - { offsetInCU: 0x19FEC, offset: 0x19FEC, size: 0x8, addend: 0x0, symName: __ZNSt3__113__rewrap_iterB8ue170006IPPiS2_NS_18__unwrap_iter_implIS2_Lb1EEEEET_S5_T0_, symObjAddr: 0x14A40, symBinAddr: 0x10001506C, symSize: 0x50 }
  - { offsetInCU: 0x1A041, offset: 0x1A041, size: 0x8, addend: 0x0, symName: __ZNSt3__119__copy_trivial_implB8ue170006IPiS1_EENS_4pairIPT_PT0_EES4_S4_S6_, symObjAddr: 0x14A90, symBinAddr: 0x1000150BC, symSize: 0x80 }
  - { offsetInCU: 0x1A0A9, offset: 0x1A0A9, size: 0x8, addend: 0x0, symName: __ZNSt3__119__constexpr_memmoveB8ue170006IPiS1_Li0EEEPT_S3_PT0_NS_15__element_countE, symObjAddr: 0x14B10, symBinAddr: 0x10001513C, symSize: 0xA0 }
  - { offsetInCU: 0x1A117, offset: 0x1A117, size: 0x8, addend: 0x0, symName: __ZNSt3__19make_pairB8ue170006IRPPiS2_EENS_4pairINS_18__unwrap_ref_decayIT_E4typeENS5_IT0_E4typeEEEOS6_OS9_, symObjAddr: 0x14BB0, symBinAddr: 0x1000151DC, symSize: 0x38 }
  - { offsetInCU: 0x1A1B9, offset: 0x1A1B9, size: 0x8, addend: 0x0, symName: __ZNSt3__18distanceB8ue170006INS_13move_iteratorIPPiEEEENS_15iterator_traitsIT_E15difference_typeES6_S6_, symObjAddr: 0x14DB0, symBinAddr: 0x1000153DC, symSize: 0x3C }
  - { offsetInCU: 0x1A1FC, offset: 0x1A1FC, size: 0x8, addend: 0x0, symName: __ZNSt3__110__distanceB8ue170006INS_13move_iteratorIPPiEEEENS_15iterator_traitsIT_E15difference_typeES6_S6_NS_26random_access_iterator_tagE, symObjAddr: 0x14FB4, symBinAddr: 0x1000155E0, symSize: 0x30 }
  - { offsetInCU: 0x1A249, offset: 0x1A249, size: 0x8, addend: 0x0, symName: __ZNSt3__1miB8ue170006IPPiS2_EENS_13move_iteratorIT_E15difference_typeERKS5_RKNS3_IT0_EE, symObjAddr: 0x14FE4, symBinAddr: 0x100015610, symSize: 0x48 }
  - { offsetInCU: 0x1A298, offset: 0x1A298, size: 0x8, addend: 0x0, symName: __ZNSt3__113move_backwardB8ue170006IPPiS2_EET0_T_S4_S3_, symObjAddr: 0x15148, symBinAddr: 0x100015774, symSize: 0x40 }
  - { offsetInCU: 0x1A2F2, offset: 0x1A2F2, size: 0x8, addend: 0x0, symName: __ZNSt3__115__move_backwardB8ue170006INS_17_ClassicAlgPolicyEPPiS3_S3_EENS_4pairIT0_T2_EES5_T1_S6_, symObjAddr: 0x15188, symBinAddr: 0x1000157B4, symSize: 0x44 }
  - { offsetInCU: 0x1A35E, offset: 0x1A35E, size: 0x8, addend: 0x0, symName: __ZNSt3__123__dispatch_copy_or_moveB8ue170006INS_17_ClassicAlgPolicyENS_20__move_backward_loopIS1_EENS_23__move_backward_trivialEPPiS6_S6_EENS_4pairIT2_T4_EES8_T3_S9_, symObjAddr: 0x151CC, symBinAddr: 0x1000157F8, symSize: 0x44 }
  - { offsetInCU: 0x1A3DC, offset: 0x1A3DC, size: 0x8, addend: 0x0, symName: __ZNSt3__121__unwrap_and_dispatchB8ue170006INS_10__overloadINS_20__move_backward_loopINS_17_ClassicAlgPolicyEEENS_23__move_backward_trivialEEEPPiS8_S8_Li0EEENS_4pairIT0_T2_EESA_T1_SB_, symObjAddr: 0x15210, symBinAddr: 0x10001583C, symSize: 0xB4 }
  - { offsetInCU: 0x1A46A, offset: 0x1A46A, size: 0x8, addend: 0x0, symName: __ZNSt3__128__copy_backward_trivial_implB8ue170006IPiS1_EENS_4pairIPT_PT0_EES4_S4_S6_, symObjAddr: 0x1530C, symBinAddr: 0x100015938, symSize: 0x90 }
  - { offsetInCU: 0x1A4D2, offset: 0x1A4D2, size: 0x8, addend: 0x0, symName: __ZNSt3__19make_pairB8ue170006IRPPiS3_EENS_4pairINS_18__unwrap_ref_decayIT_E4typeENS5_IT0_E4typeEEEOS6_OS9_, symObjAddr: 0x1539C, symBinAddr: 0x1000159C8, symSize: 0x38 }
  - { offsetInCU: 0x1A521, offset: 0x1A521, size: 0x8, addend: 0x0, symName: __ZNSt3__119__allocate_at_leastB8ue170006INS_9allocatorIPiEEEENS_19__allocation_resultINS_16allocator_traitsIT_E7pointerEEERS6_m, symObjAddr: 0x15528, symBinAddr: 0x100015B54, symSize: 0x40 }
  - { offsetInCU: 0x1A564, offset: 0x1A564, size: 0x8, addend: 0x0, symName: __ZNSt3__1neB8ue170006ERKNS_16__deque_iteratorIiPiRiPS1_lLl1024EEES6_, symObjAddr: 0x165F4, symBinAddr: 0x100016C20, symSize: 0x34 }
  - { offsetInCU: 0x1A5A2, offset: 0x1A5A2, size: 0x8, addend: 0x0, symName: __ZNSt3__1eqB8ue170006ERKNS_16__deque_iteratorIiPiRiPS1_lLl1024EEES6_, symObjAddr: 0x16698, symBinAddr: 0x100016CC4, symSize: 0x30 }
  - { offsetInCU: 0x1A5DE, offset: 0x1A5DE, size: 0x8, addend: 0x0, symName: __ZNSt3__1neB8ue170006ERKNS_16__deque_iteratorINS_12basic_stringIcNS_11char_traitsIcEENS_9allocatorIcEEEEPS6_RS6_PS7_lLl170EEESC_, symObjAddr: 0x16AE4, symBinAddr: 0x100017110, symSize: 0x34 }
  - { offsetInCU: 0x1A61C, offset: 0x1A61C, size: 0x8, addend: 0x0, symName: __ZNSt3__1eqB8ue170006ERKNS_16__deque_iteratorINS_12basic_stringIcNS_11char_traitsIcEENS_9allocatorIcEEEEPS6_RS6_PS7_lLl170EEESC_, symObjAddr: 0x16B88, symBinAddr: 0x1000171B4, symSize: 0x30 }
  - { offsetInCU: 0x1A676, offset: 0x1A676, size: 0x8, addend: 0x0, symName: __ZNSt3__1neB8ue170006ERKNS_15__tree_iteratorINS_12__value_typeINS_12basic_stringIcNS_11char_traitsIcEENS_9allocatorIcEEEEiEEPNS_11__tree_nodeIS8_PvEElEESF_, symObjAddr: 0x179EC, symBinAddr: 0x100018018, symSize: 0x34 }
  - { offsetInCU: 0x1A6B4, offset: 0x1A6B4, size: 0x8, addend: 0x0, symName: __ZNSt3__1eqB8ue170006ERKNS_15__tree_iteratorINS_12__value_typeINS_12basic_stringIcNS_11char_traitsIcEENS_9allocatorIcEEEEiEEPNS_11__tree_nodeIS8_PvEElEESF_, symObjAddr: 0x17AD0, symBinAddr: 0x1000180FC, symSize: 0x30 }
  - { offsetInCU: 0x1A756, offset: 0x1A756, size: 0x8, addend: 0x0, symName: __ZNSt3__1neB8ue170006ERKNS_20__map_const_iteratorINS_21__tree_const_iteratorINS_12__value_typeINS_12basic_stringIcNS_11char_traitsIcEENS_9allocatorIcEEEEP6parserEEPNS_11__tree_nodeISB_PvEElEEEESJ_, symObjAddr: 0x17DC8, symBinAddr: 0x1000183F4, symSize: 0x30 }
  - { offsetInCU: 0x1A793, offset: 0x1A793, size: 0x8, addend: 0x0, symName: __ZNSt3__1neB8ue170006ERKNS_21__tree_const_iteratorINS_12__value_typeINS_12basic_stringIcNS_11char_traitsIcEENS_9allocatorIcEEEEP6parserEEPNS_11__tree_nodeISA_PvEElEESH_, symObjAddr: 0x17ED0, symBinAddr: 0x1000184FC, symSize: 0x34 }
  - { offsetInCU: 0x1A7D1, offset: 0x1A7D1, size: 0x8, addend: 0x0, symName: __ZNSt3__1eqB8ue170006ERKNS_21__tree_const_iteratorINS_12__value_typeINS_12basic_stringIcNS_11char_traitsIcEENS_9allocatorIcEEEEP6parserEEPNS_11__tree_nodeISA_PvEElEESH_, symObjAddr: 0x17F04, symBinAddr: 0x100018530, symSize: 0x30 }
  - { offsetInCU: 0x1A831, offset: 0x1A831, size: 0x8, addend: 0x0, symName: __ZNSt3__14nextB8ue170006INS_21__tree_const_iteratorINS_12__value_typeINS_12basic_stringIcNS_11char_traitsIcEENS_9allocatorIcEEEEP6parserEEPNS_11__tree_nodeISB_PvEElEEEENS_9enable_ifIXsr29__has_input_iterator_categoryIT_EE5valueESI_E4typeESI_NS_15iterator_traitsISI_E15difference_typeE, symObjAddr: 0x18704, symBinAddr: 0x100018D30, symSize: 0x3C }
  - { offsetInCU: 0x1A874, offset: 0x1A874, size: 0x8, addend: 0x0, symName: __ZNSt3__116__tree_prev_iterB8ue170006IPNS_16__tree_node_baseIPvEEPNS_15__tree_end_nodeIS4_EEEET_T0_, symObjAddr: 0x187CC, symBinAddr: 0x100018DF8, symSize: 0x88 }
  - { offsetInCU: 0x1A8C0, offset: 0x1A8C0, size: 0x8, addend: 0x0, symName: __ZNSt3__110__tree_maxB8ue170006IPNS_16__tree_node_baseIPvEEEET_S5_, symObjAddr: 0x18854, symBinAddr: 0x100018E80, symSize: 0x40 }
  - { offsetInCU: 0x1A8F5, offset: 0x1A8F5, size: 0x8, addend: 0x0, symName: __ZNSt3__121__convert_to_integralB8ue170006El, symObjAddr: 0x188CC, symBinAddr: 0x100018EF8, symSize: 0x14 }
  - { offsetInCU: 0x1A921, offset: 0x1A921, size: 0x8, addend: 0x0, symName: __ZNSt3__19__advanceB8ue170006INS_21__tree_const_iteratorINS_12__value_typeINS_12basic_stringIcNS_11char_traitsIcEENS_9allocatorIcEEEEP6parserEEPNS_11__tree_nodeISB_PvEElEEEEvRT_NS_15iterator_traitsISH_E15difference_typeENS_26bidirectional_iterator_tagE, symObjAddr: 0x188E0, symBinAddr: 0x100018F0C, symSize: 0xA4 }
  - { offsetInCU: 0x1A96A, offset: 0x1A96A, size: 0x8, addend: 0x0, symName: __ZNSt3__116__tree_next_iterB8ue170006IPNS_15__tree_end_nodeIPNS_16__tree_node_baseIPvEEEES5_EET_T0_, symObjAddr: 0x189BC, symBinAddr: 0x100018FE8, symSize: 0x80 }
  - { offsetInCU: 0x1A9A8, offset: 0x1A9A8, size: 0x8, addend: 0x0, symName: __ZNSt3__110__tree_minB8ue170006IPNS_16__tree_node_baseIPvEEEET_S5_, symObjAddr: 0x18A3C, symBinAddr: 0x100019068, symSize: 0x40 }
  - { offsetInCU: 0x1AA2E, offset: 0x1AA2E, size: 0x8, addend: 0x0, symName: __ZNSt3__1neB8ue170006ERKNS_20__map_const_iteratorINS_21__tree_const_iteratorINS_12__value_typeINS_12basic_stringIcNS_11char_traitsIcEENS_9allocatorIcEEEEiEEPNS_11__tree_nodeIS9_PvEElEEEESH_, symObjAddr: 0x1931C, symBinAddr: 0x100019948, symSize: 0x30 }
  - { offsetInCU: 0x1AA6B, offset: 0x1AA6B, size: 0x8, addend: 0x0, symName: __ZNSt3__1neB8ue170006ERKNS_21__tree_const_iteratorINS_12__value_typeINS_12basic_stringIcNS_11char_traitsIcEENS_9allocatorIcEEEEiEEPNS_11__tree_nodeIS8_PvEElEESF_, symObjAddr: 0x19424, symBinAddr: 0x100019A50, symSize: 0x34 }
  - { offsetInCU: 0x1AAA9, offset: 0x1AAA9, size: 0x8, addend: 0x0, symName: __ZNSt3__1eqB8ue170006ERKNS_21__tree_const_iteratorINS_12__value_typeINS_12basic_stringIcNS_11char_traitsIcEENS_9allocatorIcEEEEiEEPNS_11__tree_nodeIS8_PvEElEESF_, symObjAddr: 0x19458, symBinAddr: 0x100019A84, symSize: 0x30 }
  - { offsetInCU: 0x1AAE5, offset: 0x1AAE5, size: 0x8, addend: 0x0, symName: __ZNSt3__14nextB8ue170006INS_21__tree_const_iteratorINS_12__value_typeINS_12basic_stringIcNS_11char_traitsIcEENS_9allocatorIcEEEEiEEPNS_11__tree_nodeIS9_PvEElEEEENS_9enable_ifIXsr29__has_input_iterator_categoryIT_EE5valueESG_E4typeESG_NS_15iterator_traitsISG_E15difference_typeE, symObjAddr: 0x19BF0, symBinAddr: 0x10001A21C, symSize: 0x3C }
  - { offsetInCU: 0x1AB28, offset: 0x1AB28, size: 0x8, addend: 0x0, symName: __ZNSt3__19__advanceB8ue170006INS_21__tree_const_iteratorINS_12__value_typeINS_12basic_stringIcNS_11char_traitsIcEENS_9allocatorIcEEEEiEEPNS_11__tree_nodeIS9_PvEElEEEEvRT_NS_15iterator_traitsISF_E15difference_typeENS_26bidirectional_iterator_tagE, symObjAddr: 0x19C9C, symBinAddr: 0x10001A2C8, symSize: 0xA4 }
  - { offsetInCU: 0x1ABC2, offset: 0x1ABC2, size: 0x8, addend: 0x0, symName: __ZNSt3__119__allocate_at_leastB8ue170006INS_9allocatorINS_12basic_stringIcNS_11char_traitsIcEENS1_IcEEEEEEEENS_19__allocation_resultINS_16allocator_traitsIT_E7pointerEEERSA_m, symObjAddr: 0x1AB6C, symBinAddr: 0x10001B198, symSize: 0x40 }
  - { offsetInCU: 0x1AC05, offset: 0x1AC05, size: 0x8, addend: 0x0, symName: __ZNSt3__142__uninitialized_allocator_move_if_noexceptB8ue170006INS_9allocatorINS_12basic_stringIcNS_11char_traitsIcEENS1_IcEEEEEENS_16reverse_iteratorIPS6_EESA_SA_EET2_RT_T0_T1_SB_, symObjAddr: 0x1AD9C, symBinAddr: 0x10001B3C8, symSize: 0x134 }
  - { offsetInCU: 0x1ACA5, offset: 0x1ACA5, size: 0x8, addend: 0x0, symName: __ZNSt3__14swapB8ue170006IPNS_12basic_stringIcNS_11char_traitsIcEENS_9allocatorIcEEEEEEvRT_S9_, symObjAddr: 0x1AF1C, symBinAddr: 0x10001B548, symSize: 0x3C }
  - { offsetInCU: 0x1ACF6, offset: 0x1ACF6, size: 0x8, addend: 0x0, symName: __ZNSt3__122__make_exception_guardB8ue170006INS_29_AllocatorDestroyRangeReverseINS_9allocatorINS_12basic_stringIcNS_11char_traitsIcEENS2_IcEEEEEENS_16reverse_iteratorIPS7_EEEEEENS_28__exception_guard_exceptionsIT_EESE_, symObjAddr: 0x1B068, symBinAddr: 0x10001B694, symSize: 0x4C }
  - { offsetInCU: 0x1AD2C, offset: 0x1AD2C, size: 0x8, addend: 0x0, symName: __ZNSt3__1neB8ue170006IPNS_12basic_stringIcNS_11char_traitsIcEENS_9allocatorIcEEEES7_EEbRKNS_16reverse_iteratorIT_EERKNS8_IT0_EE, symObjAddr: 0x1B0F8, symBinAddr: 0x10001B724, symSize: 0x48 }
  - { offsetInCU: 0x1AD78, offset: 0x1AD78, size: 0x8, addend: 0x0, symName: __ZNSt3__112__to_addressB8ue170006INS_16reverse_iteratorIPNS_12basic_stringIcNS_11char_traitsIcEENS_9allocatorIcEEEEEEvEEu7__decayIDTclsr19__to_address_helperIT_EE6__callclsr3stdE7declvalIRKSA_EEEEESC_, symObjAddr: 0x1B140, symBinAddr: 0x10001B76C, symSize: 0x24 }
  - { offsetInCU: 0x1ADD7, offset: 0x1ADD7, size: 0x8, addend: 0x0, symName: __ZNSt3__119__allocator_destroyB8ue170006INS_9allocatorINS_12basic_stringIcNS_11char_traitsIcEENS1_IcEEEEEENS_16reverse_iteratorINS8_IPS6_EEEESB_EEvRT_T0_T1_, symObjAddr: 0x1B3FC, symBinAddr: 0x10001BA28, symSize: 0x70 }
  - { offsetInCU: 0x1AE3C, offset: 0x1AE3C, size: 0x8, addend: 0x0, symName: __ZNSt3__1neB8ue170006INS_16reverse_iteratorIPNS_12basic_stringIcNS_11char_traitsIcEENS_9allocatorIcEEEEEES9_EEbRKNS1_IT_EERKNS1_IT0_EE, symObjAddr: 0x1B4A8, symBinAddr: 0x10001BAD4, symSize: 0x60 }
  - { offsetInCU: 0x1AE88, offset: 0x1AE88, size: 0x8, addend: 0x0, symName: __ZNSt3__112__to_addressB8ue170006INS_16reverse_iteratorINS1_IPNS_12basic_stringIcNS_11char_traitsIcEENS_9allocatorIcEEEEEEEEvEEu7__decayIDTclsr19__to_address_helperIT_EE6__callclsr3stdE7declvalIRKSB_EEEEESD_, symObjAddr: 0x1B508, symBinAddr: 0x10001BB34, symSize: 0x24 }
  - { offsetInCU: 0x1AEE7, offset: 0x1AEE7, size: 0x8, addend: 0x0, symName: __ZNSt3__116__pad_and_outputB8ue170006IcNS_11char_traitsIcEEEENS_19ostreambuf_iteratorIT_T0_EES6_PKS4_S8_S8_RNS_8ios_baseES4_, symObjAddr: 0x1BB60, symBinAddr: 0x10001C18C, symSize: 0x248 }
  - { offsetInCU: 0x1AFB6, offset: 0x1AFB6, size: 0x8, addend: 0x0, symName: __ZNSt3__122__make_exception_guardB8ue170006INS_6vectorI5tokenNS_9allocatorIS2_EEE16__destroy_vectorEEENS_28__exception_guard_exceptionsIT_EES8_, symObjAddr: 0x1C25C, symBinAddr: 0x10001C888, symSize: 0x40 }
  - { offsetInCU: 0x1AFEB, offset: 0x1AFEB, size: 0x8, addend: 0x0, symName: __ZNSt3__119__allocate_at_leastB8ue170006INS_9allocatorI5tokenEEEENS_19__allocation_resultINS_16allocator_traitsIT_E7pointerEEERS6_m, symObjAddr: 0x1C568, symBinAddr: 0x10001CB94, symSize: 0x40 }
  - { offsetInCU: 0x1B02E, offset: 0x1B02E, size: 0x8, addend: 0x0, symName: __ZNSt3__112__to_addressB8ue170006I5tokenEEPT_S3_, symObjAddr: 0x1C888, symBinAddr: 0x10001CEB4, symSize: 0x14 }
  - { offsetInCU: 0x1B063, offset: 0x1B063, size: 0x8, addend: 0x0, symName: __ZNSt3__130__uninitialized_allocator_copyB8ue170006INS_9allocatorI5tokenEEPS2_S4_S4_EET2_RT_T0_T1_S5_, symObjAddr: 0x1C938, symBinAddr: 0x10001CF64, symSize: 0x80 }
  - { offsetInCU: 0x1B100, offset: 0x1B100, size: 0x8, addend: 0x0, symName: __ZNSt3__114__unwrap_rangeB8ue170006IP5tokenS2_EENS_4pairIT0_S4_EET_S6_, symObjAddr: 0x1CA30, symBinAddr: 0x10001D05C, symSize: 0x60 }
  - { offsetInCU: 0x1B14C, offset: 0x1B14C, size: 0x8, addend: 0x0, symName: __ZNSt3__135__uninitialized_allocator_copy_implB8ue170006INS_9allocatorI5tokenEEPS2_S4_S4_EET2_RT_T0_T1_S5_, symObjAddr: 0x1CA90, symBinAddr: 0x10001D0BC, symSize: 0xFC }
  - { offsetInCU: 0x1B1EA, offset: 0x1B1EA, size: 0x8, addend: 0x0, symName: __ZNSt3__113__unwrap_iterB8ue170006IP5tokenNS_18__unwrap_iter_implIS2_Lb1EEELi0EEEDTclsrT0_8__unwrapclsr3stdE7declvalIT_EEEES6_, symObjAddr: 0x1CB8C, symBinAddr: 0x10001D1B8, symSize: 0x24 }
  - { offsetInCU: 0x1B22E, offset: 0x1B22E, size: 0x8, addend: 0x0, symName: __ZNSt3__113__rewrap_iterB8ue170006IP5tokenS2_NS_18__unwrap_iter_implIS2_Lb1EEEEET_S5_T0_, symObjAddr: 0x1CBB0, symBinAddr: 0x10001D1DC, symSize: 0x50 }
  - { offsetInCU: 0x1B283, offset: 0x1B283, size: 0x8, addend: 0x0, symName: __ZNSt3__19make_pairB8ue170006IP5tokenS2_EENS_4pairINS_18__unwrap_ref_decayIT_E4typeENS4_IT0_E4typeEEEOS5_OS8_, symObjAddr: 0x1CC00, symBinAddr: 0x10001D22C, symSize: 0x38 }
  - { offsetInCU: 0x1B37F, offset: 0x1B37F, size: 0x8, addend: 0x0, symName: __ZNSt3__122__make_exception_guardB8ue170006INS_29_AllocatorDestroyRangeReverseINS_9allocatorI5tokenEEPS3_EEEENS_28__exception_guard_exceptionsIT_EES8_, symObjAddr: 0x1CCA8, symBinAddr: 0x10001D2D4, symSize: 0x4C }
  - { offsetInCU: 0x1B3B5, offset: 0x1B3B5, size: 0x8, addend: 0x0, symName: __ZNSt3__119__allocator_destroyB8ue170006INS_9allocatorI5tokenEENS_16reverse_iteratorIPS2_EES6_EEvRT_T0_T1_, symObjAddr: 0x1CF30, symBinAddr: 0x10001D55C, symSize: 0x70 }
  - { offsetInCU: 0x1B418, offset: 0x1B418, size: 0x8, addend: 0x0, symName: __ZNSt3__1neB8ue170006IP5tokenS2_EEbRKNS_16reverse_iteratorIT_EERKNS3_IT0_EE, symObjAddr: 0x1CFD4, symBinAddr: 0x10001D600, symSize: 0x48 }
  - { offsetInCU: 0x1B464, offset: 0x1B464, size: 0x8, addend: 0x0, symName: __ZNSt3__112__to_addressB8ue170006INS_16reverse_iteratorIP5tokenEEvEEu7__decayIDTclsr19__to_address_helperIT_EE6__callclsr3stdE7declvalIRKS5_EEEEES7_, symObjAddr: 0x1D048, symBinAddr: 0x10001D674, symSize: 0x24 }
  - { offsetInCU: 0x1B516, offset: 0x1B516, size: 0x8, addend: 0x0, symName: __ZNSt3__119__allocate_at_leastB8ue170006INS_9allocatorIcEEEENS_19__allocation_resultINS_16allocator_traitsIT_E7pointerEEERS5_m, symObjAddr: 0x1E520, symBinAddr: 0x10001EB4C, symSize: 0x40 }
  - { offsetInCU: 0x1B559, offset: 0x1B559, size: 0x8, addend: 0x0, symName: __ZNSt3__142__uninitialized_allocator_move_if_noexceptB8ue170006INS_9allocatorIcEENS_16reverse_iteratorIPcEES5_cvEET1_RT_T0_S9_S6_, symObjAddr: 0x1E67C, symBinAddr: 0x10001ECA8, symSize: 0xE8 }
  - { offsetInCU: 0x1B5D6, offset: 0x1B5D6, size: 0x8, addend: 0x0, symName: __ZNSt3__14swapB8ue170006IPcEEvRT_S3_, symObjAddr: 0x1E7B0, symBinAddr: 0x10001EDDC, symSize: 0x3C }
  - { offsetInCU: 0x1B627, offset: 0x1B627, size: 0x8, addend: 0x0, symName: __ZNSt3__1neB8ue170006IPcS1_EEbRKNS_16reverse_iteratorIT_EERKNS2_IT0_EE, symObjAddr: 0x1E898, symBinAddr: 0x10001EEC4, symSize: 0x48 }
  - { offsetInCU: 0x1B698, offset: 0x1B698, size: 0x8, addend: 0x0, symName: __ZNSt3__114__construct_atB8ue170006IcJcEPcEEPT_S3_DpOT0_, symObjAddr: 0x1E8E0, symBinAddr: 0x10001EF0C, symSize: 0x2C }
  - { offsetInCU: 0x1B708, offset: 0x1B708, size: 0x8, addend: 0x0, symName: __ZNSt3__112__to_addressB8ue170006INS_16reverse_iteratorIPcEEvEEu7__decayIDTclsr19__to_address_helperIT_EE6__callclsr3stdE7declvalIRKS4_EEEEES6_, symObjAddr: 0x1E90C, symBinAddr: 0x10001EF38, symSize: 0x24 }
  - { offsetInCU: 0x1B73E, offset: 0x1B73E, size: 0x8, addend: 0x0, symName: __ZNSt3__14moveB8ue170006INS_16reverse_iteratorIPcEES3_EET0_T_S5_S4_, symObjAddr: 0x1E978, symBinAddr: 0x10001EFA4, symSize: 0x78 }
  - { offsetInCU: 0x1B7C1, offset: 0x1B7C1, size: 0x8, addend: 0x0, symName: __ZNSt3__16__moveB8ue170006INS_17_ClassicAlgPolicyENS_16reverse_iteratorIPcEES4_S4_EENS_4pairIT0_T2_EES6_T1_S7_, symObjAddr: 0x1EA60, symBinAddr: 0x10001F08C, symSize: 0x64 }
  - { offsetInCU: 0x1B82D, offset: 0x1B82D, size: 0x8, addend: 0x0, symName: __ZNSt3__123__dispatch_copy_or_moveB8ue170006INS_17_ClassicAlgPolicyENS_11__move_loopIS1_EENS_14__move_trivialENS_16reverse_iteratorIPcEES7_S7_EENS_4pairIT2_T4_EES9_T3_SA_, symObjAddr: 0x1EAC4, symBinAddr: 0x10001F0F0, symSize: 0x64 }
  - { offsetInCU: 0x1B8AB, offset: 0x1B8AB, size: 0x8, addend: 0x0, symName: __ZNSt3__121__unwrap_and_dispatchB8ue170006INS_10__overloadINS_11__move_loopINS_17_ClassicAlgPolicyEEENS_14__move_trivialEEENS_16reverse_iteratorIPcEES9_S9_Li0EEENS_4pairIT0_T2_EESB_T1_SC_, symObjAddr: 0x1EB28, symBinAddr: 0x10001F154, symSize: 0x12C }
  - { offsetInCU: 0x1B93B, offset: 0x1B93B, size: 0x8, addend: 0x0, symName: __ZNSt3__114__unwrap_rangeB8ue170006INS_16reverse_iteratorIPcEES3_EENS_4pairIT0_S5_EET_S7_, symObjAddr: 0x1EC54, symBinAddr: 0x10001F280, symSize: 0x84 }
  - { offsetInCU: 0x1BA34, offset: 0x1BA34, size: 0x8, addend: 0x0, symName: __ZNSt3__113__unwrap_iterB8ue170006INS_16reverse_iteratorIPcEENS_18__unwrap_iter_implIS3_Lb0EEELi0EEEDTclsrT0_8__unwrapclsr3stdE7declvalIT_EEEES7_, symObjAddr: 0x1ED78, symBinAddr: 0x10001F3A4, symSize: 0x44 }
  - { offsetInCU: 0x1BA78, offset: 0x1BA78, size: 0x8, addend: 0x0, symName: __ZNSt3__19make_pairB8ue170006INS_16reverse_iteratorIPcEES3_EENS_4pairINS_18__unwrap_ref_decayIT_E4typeENS5_IT0_E4typeEEEOS6_OS9_, symObjAddr: 0x1EDBC, symBinAddr: 0x10001F3E8, symSize: 0x38 }
  - { offsetInCU: 0x1BAC7, offset: 0x1BAC7, size: 0x8, addend: 0x0, symName: __ZNSt3__114__rewrap_rangeB8ue170006INS_16reverse_iteratorIPcEES3_EET_S4_T0_, symObjAddr: 0x1EDF4, symBinAddr: 0x10001F420, symSize: 0x5C }
  - { offsetInCU: 0x1BB13, offset: 0x1BB13, size: 0x8, addend: 0x0, symName: __ZNSt3__113__rewrap_iterB8ue170006INS_16reverse_iteratorIPcEES3_NS_18__unwrap_iter_implIS3_Lb0EEEEET_S6_T0_, symObjAddr: 0x1EE50, symBinAddr: 0x10001F47C, symSize: 0x88 }
  - { offsetInCU: 0x1BBD4, offset: 0x1BBD4, size: 0x8, addend: 0x0, symName: __ZNSt3__142__uninitialized_allocator_move_if_noexceptB8ue170006INS_9allocatorI5tokenEENS_16reverse_iteratorIPS2_EES6_S6_EET2_RT_T0_T1_S7_, symObjAddr: 0x1F920, symBinAddr: 0x10001FF4C, symSize: 0x124 }
  - { offsetInCU: 0x1BC74, offset: 0x1BC74, size: 0x8, addend: 0x0, symName: __ZNSt3__14swapB8ue170006IP5tokenEEvRT_S4_, symObjAddr: 0x1FA44, symBinAddr: 0x100020070, symSize: 0x3C }
  - { offsetInCU: 0x1BCC5, offset: 0x1BCC5, size: 0x8, addend: 0x0, symName: __ZNSt3__122__make_exception_guardB8ue170006INS_29_AllocatorDestroyRangeReverseINS_9allocatorI5tokenEENS_16reverse_iteratorIPS3_EEEEEENS_28__exception_guard_exceptionsIT_EESA_, symObjAddr: 0x1FA80, symBinAddr: 0x1000200AC, symSize: 0x4C }
  - { offsetInCU: 0x1BCFB, offset: 0x1BCFB, size: 0x8, addend: 0x0, symName: __ZNSt3__119__allocator_destroyB8ue170006INS_9allocatorI5tokenEENS_16reverse_iteratorINS4_IPS2_EEEES7_EEvRT_T0_T1_, symObjAddr: 0x1FCF0, symBinAddr: 0x10002031C, symSize: 0x70 }
  - { offsetInCU: 0x1BD60, offset: 0x1BD60, size: 0x8, addend: 0x0, symName: __ZNSt3__1neB8ue170006INS_16reverse_iteratorIP5tokenEES4_EEbRKNS1_IT_EERKNS1_IT0_EE, symObjAddr: 0x1FD9C, symBinAddr: 0x1000203C8, symSize: 0x60 }
  - { offsetInCU: 0x1BDAC, offset: 0x1BDAC, size: 0x8, addend: 0x0, symName: __ZNSt3__112__to_addressB8ue170006INS_16reverse_iteratorINS1_IP5tokenEEEEvEEu7__decayIDTclsr19__to_address_helperIT_EE6__callclsr3stdE7declvalIRKS6_EEEEES8_, symObjAddr: 0x1FDFC, symBinAddr: 0x100020428, symSize: 0x24 }
  - { offsetInCU: 0x1BE0B, offset: 0x1BE0B, size: 0x8, addend: 0x0, symName: __ZNSt3__17getlineB8ue170006IcNS_11char_traitsIcEENS_9allocatorIcEEEERNS_13basic_istreamIT_T0_EES9_RNS_12basic_stringIS6_S7_T1_EES6_, symObjAddr: 0x201F4, symBinAddr: 0x100020820, symSize: 0x234 }
  - { offsetInCU: 0x1C2DD, offset: 0x1C2DD, size: 0x8, addend: 0x0, symName: __ZSt28__throw_bad_array_new_lengthB8ue170006v, symObjAddr: 0x7B1C, symBinAddr: 0x100008148, symSize: 0x34 }
  - { offsetInCU: 0x1C4B5, offset: 0x1C4B5, size: 0x8, addend: 0x0, symName: __Z7isPrintRKNSt3__112basic_stringIcNS_11char_traitsIcEENS_9allocatorIcEEEE, symObjAddr: 0x508, symBinAddr: 0x100000B34, symSize: 0x1B8 }
  - { offsetInCU: 0x1C4E0, offset: 0x1C4E0, size: 0x8, addend: 0x0, symName: __ZZ7isPrintRKNSt3__112basic_stringIcNS_11char_traitsIcEENS_9allocatorIcEEEEE8keywords, symObjAddr: 0xE51A0, symBinAddr: 0x100028050, symSize: 0x0 }
  - { offsetInCU: 0x1C54C, offset: 0x1C54C, size: 0x8, addend: 0x0, symName: __Z12isComparisonRKNSt3__112basic_stringIcNS_11char_traitsIcEENS_9allocatorIcEEEE, symObjAddr: 0x6C0, symBinAddr: 0x100000CEC, symSize: 0x274 }
  - { offsetInCU: 0x1C577, offset: 0x1C577, size: 0x8, addend: 0x0, symName: __ZZ12isComparisonRKNSt3__112basic_stringIcNS_11char_traitsIcEENS_9allocatorIcEEEEE11comparisons, symObjAddr: 0xE51C0, symBinAddr: 0x100028070, symSize: 0x0 }
  - { offsetInCU: 0x1C5E4, offset: 0x1C5E4, size: 0x8, addend: 0x0, symName: __Z10isOperatorRKNSt3__112basic_stringIcNS_11char_traitsIcEENS_9allocatorIcEEEE, symObjAddr: 0x934, symBinAddr: 0x100000F60, symSize: 0x22C }
  - { offsetInCU: 0x1C60F, offset: 0x1C60F, size: 0x8, addend: 0x0, symName: __ZZ10isOperatorRKNSt3__112basic_stringIcNS_11char_traitsIcEENS_9allocatorIcEEEEE9operators, symObjAddr: 0xE5258, symBinAddr: 0x100028108, symSize: 0x0 }
  - { offsetInCU: 0x1DC27, offset: 0x1DC27, size: 0x8, addend: 0x0, symName: __ZNSt3__16vectorIP5parseNS_9allocatorIS2_EEE26__swap_out_circular_bufferERNS_14__split_bufferIS2_RS4_EE, symObjAddr: 0x73F8, symBinAddr: 0x100007A24, symSize: 0x110 }
  - { offsetInCU: 0x1DE1C, offset: 0x1DE1C, size: 0x8, addend: 0x0, symName: __ZNSt3__16vectorINS_12basic_stringIcNS_11char_traitsIcEENS_9allocatorIcEEEENS4_IS6_EEE26__swap_out_circular_bufferERNS_14__split_bufferIS6_RS7_EE, symObjAddr: 0x1A798, symBinAddr: 0x10001ADC4, symSize: 0x110 }
  - { offsetInCU: 0x1E145, offset: 0x1E145, size: 0x8, addend: 0x0, symName: __ZNSt3__16vectorIcNS_9allocatorIcEEE26__swap_out_circular_bufferERNS_14__split_bufferIcRS2_EE, symObjAddr: 0x1E1F8, symBinAddr: 0x10001E824, symSize: 0x110 }
  - { offsetInCU: 0x1E19F, offset: 0x1E19F, size: 0x8, addend: 0x0, symName: __ZNSt3__16vectorI5tokenNS_9allocatorIS1_EEE26__swap_out_circular_bufferERNS_14__split_bufferIS1_RS3_EE, symObjAddr: 0x1F5AC, symBinAddr: 0x10001FBD8, symSize: 0x110 }
  - { offsetInCU: 0x1EA25, offset: 0x1EA25, size: 0x8, addend: 0x0, symName: __Z7isdigiti, symObjAddr: 0x16BB8, symBinAddr: 0x1000171E4, symSize: 0x28 }
  - { offsetInCU: 0x2058C, offset: 0x2058C, size: 0x8, addend: 0x0, symName: __Z14debugCheckNullPvRKNSt3__112basic_stringIcNS0_11char_traitsIcEENS0_9allocatorIcEEEE, symObjAddr: 0x0, symBinAddr: 0x10000062C, symSize: 0x60 }
  - { offsetInCU: 0x205C3, offset: 0x205C3, size: 0x8, addend: 0x0, symName: __ZNSt3__113basic_ostreamIcNS_11char_traitsIcEEElsB8ue170006EPFRS3_S4_E, symObjAddr: 0xF4, symBinAddr: 0x100000720, symSize: 0x2C }
  - { offsetInCU: 0x205FD, offset: 0x205FD, size: 0x8, addend: 0x0, symName: __ZNSt3__112basic_stringIcNS_11char_traitsIcEENS_9allocatorIcEEEC1B8ue170006ILi0EEEPKc, symObjAddr: 0x380, symBinAddr: 0x1000009AC, symSize: 0x34 }
  - { offsetInCU: 0x2063B, offset: 0x2063B, size: 0x8, addend: 0x0, symName: __Z5lexerNSt3__112basic_stringIcNS_11char_traitsIcEENS_9allocatorIcEEEEii, symObjAddr: 0xB60, symBinAddr: 0x10000118C, symSize: 0x36B4 }
  - { offsetInCU: 0x20DC8, offset: 0x20DC8, size: 0x8, addend: 0x0, symName: __ZNSt3__16vectorIcNS_9allocatorIcEEEC1B8ue170006Ev, symObjAddr: 0x4214, symBinAddr: 0x100004840, symSize: 0x2C }
  - { offsetInCU: 0x20DF2, offset: 0x20DF2, size: 0x8, addend: 0x0, symName: __ZNSt3__16vectorI5tokenNS_9allocatorIS1_EEEC1B8ue170006Ev, symObjAddr: 0x4240, symBinAddr: 0x10000486C, symSize: 0x2C }
  - { offsetInCU: 0x20E1C, offset: 0x20E1C, size: 0x8, addend: 0x0, symName: __ZNKSt3__112basic_stringIcNS_11char_traitsIcEENS_9allocatorIcEEE6lengthB8ue170006Ev, symObjAddr: 0x426C, symBinAddr: 0x100004898, symSize: 0x24 }
  - { offsetInCU: 0x20E42, offset: 0x20E42, size: 0x8, addend: 0x0, symName: __ZNSt3__16vectorIcNS_9allocatorIcEEE9push_backB8ue170006ERKc, symObjAddr: 0x4290, symBinAddr: 0x1000048BC, symSize: 0x6C }
  - { offsetInCU: 0x20E79, offset: 0x20E79, size: 0x8, addend: 0x0, symName: __ZNSt3__112basic_stringIcNS_11char_traitsIcEENS_9allocatorIcEEEixB8ue170006Em, symObjAddr: 0x42FC, symBinAddr: 0x100004928, symSize: 0x30 }
  - { offsetInCU: 0x20EAE, offset: 0x20EAE, size: 0x8, addend: 0x0, symName: __ZNSt3__16vectorIcNS_9allocatorIcEEEixB8ue170006Em, symObjAddr: 0x432C, symBinAddr: 0x100004958, symSize: 0x24 }
  - { offsetInCU: 0x20EE5, offset: 0x20EE5, size: 0x8, addend: 0x0, symName: __ZNSt3__16vectorIcNS_9allocatorIcEEE8pop_backEv, symObjAddr: 0x4350, symBinAddr: 0x10000497C, symSize: 0x2C }
  - { offsetInCU: 0x20F0D, offset: 0x20F0D, size: 0x8, addend: 0x0, symName: __ZNSt3__112basic_stringIcNS_11char_traitsIcEENS_9allocatorIcEEEC1B8ue170006Ev, symObjAddr: 0x437C, symBinAddr: 0x1000049A8, symSize: 0x2C }
  - { offsetInCU: 0x20F37, offset: 0x20F37, size: 0x8, addend: 0x0, symName: __ZNKSt3__16vectorIcNS_9allocatorIcEEE4sizeB8ue170006Ev, symObjAddr: 0x43A8, symBinAddr: 0x1000049D4, symSize: 0x20 }
  - { offsetInCU: 0x20F5D, offset: 0x20F5D, size: 0x8, addend: 0x0, symName: __ZNSt3__16vectorI5tokenNS_9allocatorIS1_EEE9push_backB8ue170006ERKS1_, symObjAddr: 0x43C8, symBinAddr: 0x1000049F4, symSize: 0x6C }
  - { offsetInCU: 0x20F9A, offset: 0x20F9A, size: 0x8, addend: 0x0, symName: __ZN5tokenD1Ev, symObjAddr: 0x4434, symBinAddr: 0x100004A60, symSize: 0x2C }
  - { offsetInCU: 0x20FC6, offset: 0x20FC6, size: 0x8, addend: 0x0, symName: __ZNKSt3__112basic_stringIcNS_11char_traitsIcEENS_9allocatorIcEEE5emptyB8ue170006Ev, symObjAddr: 0x4460, symBinAddr: 0x100004A8C, symSize: 0x30 }
  - { offsetInCU: 0x20FEC, offset: 0x20FEC, size: 0x8, addend: 0x0, symName: __ZNSt3__112basic_stringIcNS_11char_traitsIcEENS_9allocatorIcEEE5clearB8ue170006Ev, symObjAddr: 0x4550, symBinAddr: 0x100004B7C, symSize: 0x78 }
  - { offsetInCU: 0x21014, offset: 0x21014, size: 0x8, addend: 0x0, symName: __ZNKSt3__112basic_stringIcNS_11char_traitsIcEENS_9allocatorIcEEE6substrB8ue170006Emm, symObjAddr: 0x45C8, symBinAddr: 0x100004BF4, symSize: 0x68 }
  - { offsetInCU: 0x21058, offset: 0x21058, size: 0x8, addend: 0x0, symName: __ZNSt3__112basic_stringIcNS_11char_traitsIcEENS_9allocatorIcEEEC1B8ue170006Emc, symObjAddr: 0x4630, symBinAddr: 0x100004C5C, symSize: 0x3C }
  - { offsetInCU: 0x210A0, offset: 0x210A0, size: 0x8, addend: 0x0, symName: __ZNSt3__112basic_stringIcNS_11char_traitsIcEENS_9allocatorIcEEEpLB8ue170006Ec, symObjAddr: 0x466C, symBinAddr: 0x100004C98, symSize: 0x34 }
  - { offsetInCU: 0x210D5, offset: 0x210D5, size: 0x8, addend: 0x0, symName: __ZNKSt3__16vectorI5tokenNS_9allocatorIS1_EEE4sizeB8ue170006Ev, symObjAddr: 0x46A0, symBinAddr: 0x100004CCC, symSize: 0x28 }
  - { offsetInCU: 0x210FB, offset: 0x210FB, size: 0x8, addend: 0x0, symName: __ZNSt3__16vectorI5tokenNS_9allocatorIS1_EEEixB8ue170006Em, symObjAddr: 0x46C8, symBinAddr: 0x100004CF4, symSize: 0x2C }
  - { offsetInCU: 0x21132, offset: 0x21132, size: 0x8, addend: 0x0, symName: __ZNSt3__112basic_stringIcNS_11char_traitsIcEENS_9allocatorIcEEEaSB8ue170006EPKc, symObjAddr: 0x46F4, symBinAddr: 0x100004D20, symSize: 0x2C }
  - { offsetInCU: 0x21167, offset: 0x21167, size: 0x8, addend: 0x0, symName: __ZNSt3__16vectorI5tokenNS_9allocatorIS1_EEED1B8ue170006Ev, symObjAddr: 0x4754, symBinAddr: 0x100004D80, symSize: 0x2C }
  - { offsetInCU: 0x21191, offset: 0x21191, size: 0x8, addend: 0x0, symName: __ZNSt3__16vectorIcNS_9allocatorIcEEED1B8ue170006Ev, symObjAddr: 0x4780, symBinAddr: 0x100004DAC, symSize: 0x2C }
  - { offsetInCU: 0x211BB, offset: 0x211BB, size: 0x8, addend: 0x0, symName: _main, symObjAddr: 0x47AC, symBinAddr: 0x100004DD8, symSize: 0x310 }
  - { offsetInCU: 0x213C0, offset: 0x213C0, size: 0x8, addend: 0x0, symName: __ZNSt3__114basic_ifstreamIcNS_11char_traitsIcEEEC1Ev, symObjAddr: 0x4ABC, symBinAddr: 0x1000050E8, symSize: 0xF4 }
  - { offsetInCU: 0x213EC, offset: 0x213EC, size: 0x8, addend: 0x0, symName: __ZN6parserC1Ev, symObjAddr: 0x4BB0, symBinAddr: 0x1000051DC, symSize: 0x2C }
  - { offsetInCU: 0x21418, offset: 0x21418, size: 0x8, addend: 0x0, symName: __ZNKSt3__19basic_iosIcNS_11char_traitsIcEEEcvPvB8ue170006Ev, symObjAddr: 0x4C38, symBinAddr: 0x100005264, symSize: 0x4C }
  - { offsetInCU: 0x2143E, offset: 0x2143E, size: 0x8, addend: 0x0, symName: __ZN6parser16parser_constructENSt3__16vectorI5tokenNS0_9allocatorIS2_EEEE, symObjAddr: 0x4C84, symBinAddr: 0x1000052B0, symSize: 0x9C }
  - { offsetInCU: 0x21473, offset: 0x21473, size: 0x8, addend: 0x0, symName: __ZNSt3__16vectorI5tokenNS_9allocatorIS1_EEEC1ERKS4_, symObjAddr: 0x4D20, symBinAddr: 0x10000534C, symSize: 0x34 }
  - { offsetInCU: 0x214AE, offset: 0x214AE, size: 0x8, addend: 0x0, symName: __ZN6parser15parser_evaluateEv, symObjAddr: 0x4D54, symBinAddr: 0x100005380, symSize: 0x24 }
  - { offsetInCU: 0x214DA, offset: 0x214DA, size: 0x8, addend: 0x0, symName: __ZNSt3__114basic_ifstreamIcNS_11char_traitsIcEEED1Ev, symObjAddr: 0x4D78, symBinAddr: 0x1000053A4, symSize: 0x70 }
  - { offsetInCU: 0x21507, offset: 0x21507, size: 0x8, addend: 0x0, symName: __ZN5tokenD2Ev, symObjAddr: 0x4DE8, symBinAddr: 0x100005414, symSize: 0x68 }
  - { offsetInCU: 0x21533, offset: 0x21533, size: 0x8, addend: 0x0, symName: __ZN6parserC2Ev, symObjAddr: 0x4E50, symBinAddr: 0x10000547C, symSize: 0xE8 }
  - { offsetInCU: 0x2155F, offset: 0x2155F, size: 0x8, addend: 0x0, symName: __ZNSt3__13mapINS_12basic_stringIcNS_11char_traitsIcEENS_9allocatorIcEEEEiNS_4lessIS6_EENS4_INS_4pairIKS6_iEEEEEC1B8ue170006Ev, symObjAddr: 0x4F38, symBinAddr: 0x100005564, symSize: 0x2C }
  - { offsetInCU: 0x21589, offset: 0x21589, size: 0x8, addend: 0x0, symName: __ZNSt3__13mapINS_12basic_stringIcNS_11char_traitsIcEENS_9allocatorIcEEEEP6parserNS_4lessIS6_EENS4_INS_4pairIKS6_S8_EEEEEC1B8ue170006Ev, symObjAddr: 0x4F64, symBinAddr: 0x100005590, symSize: 0x2C }
  - { offsetInCU: 0x215B3, offset: 0x215B3, size: 0x8, addend: 0x0, symName: __ZNSt3__16vectorIP5parseNS_9allocatorIS2_EEEC1B8ue170006Ev, symObjAddr: 0x4F90, symBinAddr: 0x1000055BC, symSize: 0x2C }
  - { offsetInCU: 0x215DD, offset: 0x215DD, size: 0x8, addend: 0x0, symName: __ZNSt3__16vectorINS_12basic_stringIcNS_11char_traitsIcEENS_9allocatorIcEEEENS4_IS6_EEEC1B8ue170006Ev, symObjAddr: 0x4FBC, symBinAddr: 0x1000055E8, symSize: 0x2C }
  - { offsetInCU: 0x21607, offset: 0x21607, size: 0x8, addend: 0x0, symName: __ZNSt3__16vectorIP5parseNS_9allocatorIS2_EEED1B8ue170006Ev, symObjAddr: 0x4FE8, symBinAddr: 0x100005614, symSize: 0x2C }
  - { offsetInCU: 0x21631, offset: 0x21631, size: 0x8, addend: 0x0, symName: __ZNSt3__13mapINS_12basic_stringIcNS_11char_traitsIcEENS_9allocatorIcEEEEP6parserNS_4lessIS6_EENS4_INS_4pairIKS6_S8_EEEEED1B8ue170006Ev, symObjAddr: 0x5014, symBinAddr: 0x100005640, symSize: 0x2C }
  - { offsetInCU: 0x2165B, offset: 0x2165B, size: 0x8, addend: 0x0, symName: __ZNSt3__13mapINS_12basic_stringIcNS_11char_traitsIcEENS_9allocatorIcEEEEiNS_4lessIS6_EENS4_INS_4pairIKS6_iEEEEED1B8ue170006Ev, symObjAddr: 0x5040, symBinAddr: 0x10000566C, symSize: 0x2C }
  - { offsetInCU: 0x21685, offset: 0x21685, size: 0x8, addend: 0x0, symName: __ZNSt3__13mapINS_12basic_stringIcNS_11char_traitsIcEENS_9allocatorIcEEEEiNS_4lessIS6_EENS4_INS_4pairIKS6_iEEEEEC2B8ue170006Ev, symObjAddr: 0x506C, symBinAddr: 0x100005698, symSize: 0x40 }
  - { offsetInCU: 0x216AF, offset: 0x216AF, size: 0x8, addend: 0x0, symName: __ZNSt3__119__map_value_compareINS_12basic_stringIcNS_11char_traitsIcEENS_9allocatorIcEEEENS_12__value_typeIS6_iEENS_4lessIS6_EELb1EEC1B8ue170006ESA_, symObjAddr: 0x50AC, symBinAddr: 0x1000056D8, symSize: 0x2C }
  - { offsetInCU: 0x216E8, offset: 0x216E8, size: 0x8, addend: 0x0, symName: __ZNSt3__16__treeINS_12__value_typeINS_12basic_stringIcNS_11char_traitsIcEENS_9allocatorIcEEEEiEENS_19__map_value_compareIS7_S8_NS_4lessIS7_EELb1EEENS5_IS8_EEEC1ERKSC_, symObjAddr: 0x50D8, symBinAddr: 0x100005704, symSize: 0x34 }
  - { offsetInCU: 0x21723, offset: 0x21723, size: 0x8, addend: 0x0, symName: __ZNSt3__119__map_value_compareINS_12basic_stringIcNS_11char_traitsIcEENS_9allocatorIcEEEENS_12__value_typeIS6_iEENS_4lessIS6_EELb1EEC2B8ue170006ESA_, symObjAddr: 0x510C, symBinAddr: 0x100005738, symSize: 0x14 }
  - { offsetInCU: 0x2175C, offset: 0x2175C, size: 0x8, addend: 0x0, symName: __ZNSt3__16__treeINS_12__value_typeINS_12basic_stringIcNS_11char_traitsIcEENS_9allocatorIcEEEEiEENS_19__map_value_compareIS7_S8_NS_4lessIS7_EELb1EEENS5_IS8_EEEC2ERKSC_, symObjAddr: 0x5120, symBinAddr: 0x10000574C, symSize: 0x70 }
  - { offsetInCU: 0x21797, offset: 0x21797, size: 0x8, addend: 0x0, symName: __ZNSt3__117__compressed_pairINS_15__tree_end_nodeIPNS_16__tree_node_baseIPvEEEENS_9allocatorINS_11__tree_nodeINS_12__value_typeINS_12basic_stringIcNS_11char_traitsIcEENS7_IcEEEEiEES3_EEEEEC1B8ue170006ILb1EvEEv, symObjAddr: 0x5190, symBinAddr: 0x1000057BC, symSize: 0x2C }
  - { offsetInCU: 0x217D2, offset: 0x217D2, size: 0x8, addend: 0x0, symName: __ZNSt3__117__compressed_pairImNS_19__map_value_compareINS_12basic_stringIcNS_11char_traitsIcEENS_9allocatorIcEEEENS_12__value_typeIS7_iEENS_4lessIS7_EELb1EEEEC1B8ue170006IiRKSC_EEOT_OT0_, symObjAddr: 0x51BC, symBinAddr: 0x1000057E8, symSize: 0x3C }
  - { offsetInCU: 0x2182A, offset: 0x2182A, size: 0x8, addend: 0x0, symName: __ZNSt3__16__treeINS_12__value_typeINS_12basic_stringIcNS_11char_traitsIcEENS_9allocatorIcEEEEiEENS_19__map_value_compareIS7_S8_NS_4lessIS7_EELb1EEENS5_IS8_EEE10__end_nodeB8ue170006Ev, symObjAddr: 0x51F8, symBinAddr: 0x100005824, symSize: 0x2C }
  - { offsetInCU: 0x21850, offset: 0x21850, size: 0x8, addend: 0x0, symName: __ZNSt3__16__treeINS_12__value_typeINS_12basic_stringIcNS_11char_traitsIcEENS_9allocatorIcEEEEiEENS_19__map_value_compareIS7_S8_NS_4lessIS7_EELb1EEENS5_IS8_EEE12__begin_nodeB8ue170006Ev, symObjAddr: 0x5224, symBinAddr: 0x100005850, symSize: 0x14 }
  - { offsetInCU: 0x21876, offset: 0x21876, size: 0x8, addend: 0x0, symName: __ZNSt3__117__compressed_pairINS_15__tree_end_nodeIPNS_16__tree_node_baseIPvEEEENS_9allocatorINS_11__tree_nodeINS_12__value_typeINS_12basic_stringIcNS_11char_traitsIcEENS7_IcEEEEiEES3_EEEEEC2B8ue170006ILb1EvEEv, symObjAddr: 0x5238, symBinAddr: 0x100005864, symSize: 0x34 }
  - { offsetInCU: 0x218AB, offset: 0x218AB, size: 0x8, addend: 0x0, symName: __ZNSt3__122__compressed_pair_elemINS_15__tree_end_nodeIPNS_16__tree_node_baseIPvEEEELi0ELb0EEC2B8ue170006ENS_16__value_init_tagE, symObjAddr: 0x526C, symBinAddr: 0x100005898, symSize: 0x2C }
  - { offsetInCU: 0x218DF, offset: 0x218DF, size: 0x8, addend: 0x0, symName: __ZNSt3__122__compressed_pair_elemINS_9allocatorINS_11__tree_nodeINS_12__value_typeINS_12basic_stringIcNS_11char_traitsIcEENS1_IcEEEEiEEPvEEEELi1ELb1EEC2B8ue170006ENS_16__value_init_tagE, symObjAddr: 0x5298, symBinAddr: 0x1000058C4, symSize: 0x2C }
  - { offsetInCU: 0x21913, offset: 0x21913, size: 0x8, addend: 0x0, symName: __ZNSt3__115__tree_end_nodeIPNS_16__tree_node_baseIPvEEEC1B8ue170006Ev, symObjAddr: 0x52C4, symBinAddr: 0x1000058F0, symSize: 0x2C }
  - { offsetInCU: 0x2193D, offset: 0x2193D, size: 0x8, addend: 0x0, symName: __ZNSt3__115__tree_end_nodeIPNS_16__tree_node_baseIPvEEEC2B8ue170006Ev, symObjAddr: 0x52F0, symBinAddr: 0x10000591C, symSize: 0x18 }
  - { offsetInCU: 0x21967, offset: 0x21967, size: 0x8, addend: 0x0, symName: __ZNSt3__19allocatorINS_11__tree_nodeINS_12__value_typeINS_12basic_stringIcNS_11char_traitsIcEENS0_IcEEEEiEEPvEEEC2B8ue170006Ev, symObjAddr: 0x5308, symBinAddr: 0x100005934, symSize: 0x2C }
  - { offsetInCU: 0x21991, offset: 0x21991, size: 0x8, addend: 0x0, symName: __ZNSt3__116__non_trivial_ifILb1ENS_9allocatorINS_11__tree_nodeINS_12__value_typeINS_12basic_stringIcNS_11char_traitsIcEENS1_IcEEEEiEEPvEEEEEC2B8ue170006Ev, symObjAddr: 0x5334, symBinAddr: 0x100005960, symSize: 0x14 }
  - { offsetInCU: 0x219BB, offset: 0x219BB, size: 0x8, addend: 0x0, symName: __ZNSt3__117__compressed_pairImNS_19__map_value_compareINS_12basic_stringIcNS_11char_traitsIcEENS_9allocatorIcEEEENS_12__value_typeIS7_iEENS_4lessIS7_EELb1EEEEC2B8ue170006IiRKSC_EEOT_OT0_, symObjAddr: 0x5348, symBinAddr: 0x100005974, symSize: 0x44 }
  - { offsetInCU: 0x21A13, offset: 0x21A13, size: 0x8, addend: 0x0, symName: __ZNSt3__122__compressed_pair_elemImLi0ELb0EEC2B8ue170006IivEEOT_, symObjAddr: 0x538C, symBinAddr: 0x1000059B8, symSize: 0x24 }
  - { offsetInCU: 0x21A55, offset: 0x21A55, size: 0x8, addend: 0x0, symName: __ZNSt3__122__compressed_pair_elemINS_19__map_value_compareINS_12basic_stringIcNS_11char_traitsIcEENS_9allocatorIcEEEENS_12__value_typeIS7_iEENS_4lessIS7_EELb1EEELi1ELb1EEC2B8ue170006IRKSC_vEEOT_, symObjAddr: 0x53B0, symBinAddr: 0x1000059DC, symSize: 0x18 }
  - { offsetInCU: 0x21A97, offset: 0x21A97, size: 0x8, addend: 0x0, symName: __ZNSt3__114pointer_traitsIPNS_15__tree_end_nodeIPNS_16__tree_node_baseIPvEEEEE10pointer_toB8ue170006ERS6_, symObjAddr: 0x53C8, symBinAddr: 0x1000059F4, symSize: 0x14 }
  - { offsetInCU: 0x21ABA, offset: 0x21ABA, size: 0x8, addend: 0x0, symName: __ZNSt3__117__compressed_pairINS_15__tree_end_nodeIPNS_16__tree_node_baseIPvEEEENS_9allocatorINS_11__tree_nodeINS_12__value_typeINS_12basic_stringIcNS_11char_traitsIcEENS7_IcEEEEiEES3_EEEEE5firstB8ue170006Ev, symObjAddr: 0x53DC, symBinAddr: 0x100005A08, symSize: 0x24 }
  - { offsetInCU: 0x21AE0, offset: 0x21AE0, size: 0x8, addend: 0x0, symName: __ZNSt3__122__compressed_pair_elemINS_15__tree_end_nodeIPNS_16__tree_node_baseIPvEEEELi0ELb0EE5__getB8ue170006Ev, symObjAddr: 0x5400, symBinAddr: 0x100005A2C, symSize: 0x14 }
  - { offsetInCU: 0x21B06, offset: 0x21B06, size: 0x8, addend: 0x0, symName: __ZNSt3__13mapINS_12basic_stringIcNS_11char_traitsIcEENS_9allocatorIcEEEEP6parserNS_4lessIS6_EENS4_INS_4pairIKS6_S8_EEEEEC2B8ue170006Ev, symObjAddr: 0x5414, symBinAddr: 0x100005A40, symSize: 0x40 }
  - { offsetInCU: 0x21B30, offset: 0x21B30, size: 0x8, addend: 0x0, symName: __ZNSt3__119__map_value_compareINS_12basic_stringIcNS_11char_traitsIcEENS_9allocatorIcEEEENS_12__value_typeIS6_P6parserEENS_4lessIS6_EELb1EEC1B8ue170006ESC_, symObjAddr: 0x5454, symBinAddr: 0x100005A80, symSize: 0x2C }
  - { offsetInCU: 0x21B69, offset: 0x21B69, size: 0x8, addend: 0x0, symName: __ZNSt3__16__treeINS_12__value_typeINS_12basic_stringIcNS_11char_traitsIcEENS_9allocatorIcEEEEP6parserEENS_19__map_value_compareIS7_SA_NS_4lessIS7_EELb1EEENS5_ISA_EEEC1ERKSE_, symObjAddr: 0x5480, symBinAddr: 0x100005AAC, symSize: 0x34 }
  - { offsetInCU: 0x21BA4, offset: 0x21BA4, size: 0x8, addend: 0x0, symName: __ZNSt3__119__map_value_compareINS_12basic_stringIcNS_11char_traitsIcEENS_9allocatorIcEEEENS_12__value_typeIS6_P6parserEENS_4lessIS6_EELb1EEC2B8ue170006ESC_, symObjAddr: 0x54B4, symBinAddr: 0x100005AE0, symSize: 0x14 }
  - { offsetInCU: 0x21BDD, offset: 0x21BDD, size: 0x8, addend: 0x0, symName: __ZNSt3__16__treeINS_12__value_typeINS_12basic_stringIcNS_11char_traitsIcEENS_9allocatorIcEEEEP6parserEENS_19__map_value_compareIS7_SA_NS_4lessIS7_EELb1EEENS5_ISA_EEEC2ERKSE_, symObjAddr: 0x54C8, symBinAddr: 0x100005AF4, symSize: 0x70 }
  - { offsetInCU: 0x21C18, offset: 0x21C18, size: 0x8, addend: 0x0, symName: __ZNSt3__117__compressed_pairINS_15__tree_end_nodeIPNS_16__tree_node_baseIPvEEEENS_9allocatorINS_11__tree_nodeINS_12__value_typeINS_12basic_stringIcNS_11char_traitsIcEENS7_IcEEEEP6parserEES3_EEEEEC1B8ue170006ILb1EvEEv, symObjAddr: 0x5538, symBinAddr: 0x100005B64, symSize: 0x2C }
  - { offsetInCU: 0x21C4D, offset: 0x21C4D, size: 0x8, addend: 0x0, symName: __ZNSt3__117__compressed_pairImNS_19__map_value_compareINS_12basic_stringIcNS_11char_traitsIcEENS_9allocatorIcEEEENS_12__value_typeIS7_P6parserEENS_4lessIS7_EELb1EEEEC1B8ue170006IiRKSE_EEOT_OT0_, symObjAddr: 0x5564, symBinAddr: 0x100005B90, symSize: 0x3C }
  - { offsetInCU: 0x21CA5, offset: 0x21CA5, size: 0x8, addend: 0x0, symName: __ZNSt3__16__treeINS_12__value_typeINS_12basic_stringIcNS_11char_traitsIcEENS_9allocatorIcEEEEP6parserEENS_19__map_value_compareIS7_SA_NS_4lessIS7_EELb1EEENS5_ISA_EEE10__end_nodeB8ue170006Ev, symObjAddr: 0x55A0, symBinAddr: 0x100005BCC, symSize: 0x2C }
  - { offsetInCU: 0x21CCB, offset: 0x21CCB, size: 0x8, addend: 0x0, symName: __ZNSt3__16__treeINS_12__value_typeINS_12basic_stringIcNS_11char_traitsIcEENS_9allocatorIcEEEEP6parserEENS_19__map_value_compareIS7_SA_NS_4lessIS7_EELb1EEENS5_ISA_EEE12__begin_nodeB8ue170006Ev, symObjAddr: 0x55CC, symBinAddr: 0x100005BF8, symSize: 0x14 }
  - { offsetInCU: 0x21CF1, offset: 0x21CF1, size: 0x8, addend: 0x0, symName: __ZNSt3__117__compressed_pairINS_15__tree_end_nodeIPNS_16__tree_node_baseIPvEEEENS_9allocatorINS_11__tree_nodeINS_12__value_typeINS_12basic_stringIcNS_11char_traitsIcEENS7_IcEEEEP6parserEES3_EEEEEC2B8ue170006ILb1EvEEv, symObjAddr: 0x55E0, symBinAddr: 0x100005C0C, symSize: 0x34 }
  - { offsetInCU: 0x21D26, offset: 0x21D26, size: 0x8, addend: 0x0, symName: __ZNSt3__122__compressed_pair_elemINS_9allocatorINS_11__tree_nodeINS_12__value_typeINS_12basic_stringIcNS_11char_traitsIcEENS1_IcEEEEP6parserEEPvEEEELi1ELb1EEC2B8ue170006ENS_16__value_init_tagE, symObjAddr: 0x5614, symBinAddr: 0x100005C40, symSize: 0x2C }
  - { offsetInCU: 0x21D5A, offset: 0x21D5A, size: 0x8, addend: 0x0, symName: __ZNSt3__19allocatorINS_11__tree_nodeINS_12__value_typeINS_12basic_stringIcNS_11char_traitsIcEENS0_IcEEEEP6parserEEPvEEEC2B8ue170006Ev, symObjAddr: 0x5640, symBinAddr: 0x100005C6C, symSize: 0x2C }
  - { offsetInCU: 0x21D84, offset: 0x21D84, size: 0x8, addend: 0x0, symName: __ZNSt3__116__non_trivial_ifILb1ENS_9allocatorINS_11__tree_nodeINS_12__value_typeINS_12basic_stringIcNS_11char_traitsIcEENS1_IcEEEEP6parserEEPvEEEEEC2B8ue170006Ev, symObjAddr: 0x566C, symBinAddr: 0x100005C98, symSize: 0x14 }
  - { offsetInCU: 0x21DAE, offset: 0x21DAE, size: 0x8, addend: 0x0, symName: __ZNSt3__117__compressed_pairImNS_19__map_value_compareINS_12basic_stringIcNS_11char_traitsIcEENS_9allocatorIcEEEENS_12__value_typeIS7_P6parserEENS_4lessIS7_EELb1EEEEC2B8ue170006IiRKSE_EEOT_OT0_, symObjAddr: 0x5680, symBinAddr: 0x100005CAC, symSize: 0x44 }
  - { offsetInCU: 0x21E06, offset: 0x21E06, size: 0x8, addend: 0x0, symName: __ZNSt3__122__compressed_pair_elemINS_19__map_value_compareINS_12basic_stringIcNS_11char_traitsIcEENS_9allocatorIcEEEENS_12__value_typeIS7_P6parserEENS_4lessIS7_EELb1EEELi1ELb1EEC2B8ue170006IRKSE_vEEOT_, symObjAddr: 0x56C4, symBinAddr: 0x100005CF0, symSize: 0x18 }
  - { offsetInCU: 0x21E48, offset: 0x21E48, size: 0x8, addend: 0x0, symName: __ZNSt3__117__compressed_pairINS_15__tree_end_nodeIPNS_16__tree_node_baseIPvEEEENS_9allocatorINS_11__tree_nodeINS_12__value_typeINS_12basic_stringIcNS_11char_traitsIcEENS7_IcEEEEP6parserEES3_EEEEE5firstB8ue170006Ev, symObjAddr: 0x56DC, symBinAddr: 0x100005D08, symSize: 0x24 }
  - { offsetInCU: 0x21E6E, offset: 0x21E6E, size: 0x8, addend: 0x0, symName: __ZNSt3__16vectorIP5parseNS_9allocatorIS2_EEEC2B8ue170006Ev, symObjAddr: 0x5700, symBinAddr: 0x100005D2C, symSize: 0x44 }
  - { offsetInCU: 0x21EA4, offset: 0x21EA4, size: 0x8, addend: 0x0, symName: __ZNSt3__117__compressed_pairIPP5parseNS_9allocatorIS2_EEEC1B8ue170006IDnNS_18__default_init_tagEEEOT_OT0_, symObjAddr: 0x5744, symBinAddr: 0x100005D70, symSize: 0x3C }
  - { offsetInCU: 0x21EFC, offset: 0x21EFC, size: 0x8, addend: 0x0, symName: __ZNSt3__117__compressed_pairIPP5parseNS_9allocatorIS2_EEEC2B8ue170006IDnNS_18__default_init_tagEEEOT_OT0_, symObjAddr: 0x5780, symBinAddr: 0x100005DAC, symSize: 0x40 }
  - { offsetInCU: 0x21F54, offset: 0x21F54, size: 0x8, addend: 0x0, symName: __ZNSt3__122__compressed_pair_elemIPP5parseLi0ELb0EEC2B8ue170006IDnvEEOT_, symObjAddr: 0x57C0, symBinAddr: 0x100005DEC, symSize: 0x1C }
  - { offsetInCU: 0x21F96, offset: 0x21F96, size: 0x8, addend: 0x0, symName: __ZNSt3__122__compressed_pair_elemINS_9allocatorIP5parseEELi1ELb1EEC2B8ue170006ENS_18__default_init_tagE, symObjAddr: 0x57DC, symBinAddr: 0x100005E08, symSize: 0x2C }
  - { offsetInCU: 0x21FCA, offset: 0x21FCA, size: 0x8, addend: 0x0, symName: __ZNSt3__19allocatorIP5parseEC2B8ue170006Ev, symObjAddr: 0x5808, symBinAddr: 0x100005E34, symSize: 0x2C }
  - { offsetInCU: 0x21FF4, offset: 0x21FF4, size: 0x8, addend: 0x0, symName: __ZNSt3__116__non_trivial_ifILb1ENS_9allocatorIP5parseEEEC2B8ue170006Ev, symObjAddr: 0x5834, symBinAddr: 0x100005E60, symSize: 0x14 }
  - { offsetInCU: 0x2201E, offset: 0x2201E, size: 0x8, addend: 0x0, symName: __ZNSt3__16vectorINS_12basic_stringIcNS_11char_traitsIcEENS_9allocatorIcEEEENS4_IS6_EEEC2B8ue170006Ev, symObjAddr: 0x5848, symBinAddr: 0x100005E74, symSize: 0x44 }
  - { offsetInCU: 0x22048, offset: 0x22048, size: 0x8, addend: 0x0, symName: __ZNSt3__117__compressed_pairIPNS_12basic_stringIcNS_11char_traitsIcEENS_9allocatorIcEEEENS4_IS6_EEEC1B8ue170006IDnNS_18__default_init_tagEEEOT_OT0_, symObjAddr: 0x588C, symBinAddr: 0x100005EB8, symSize: 0x3C }
  - { offsetInCU: 0x220A0, offset: 0x220A0, size: 0x8, addend: 0x0, symName: __ZNSt3__117__compressed_pairIPNS_12basic_stringIcNS_11char_traitsIcEENS_9allocatorIcEEEENS4_IS6_EEEC2B8ue170006IDnNS_18__default_init_tagEEEOT_OT0_, symObjAddr: 0x58C8, symBinAddr: 0x100005EF4, symSize: 0x40 }
  - { offsetInCU: 0x220F8, offset: 0x220F8, size: 0x8, addend: 0x0, symName: __ZNSt3__122__compressed_pair_elemIPNS_12basic_stringIcNS_11char_traitsIcEENS_9allocatorIcEEEELi0ELb0EEC2B8ue170006IDnvEEOT_, symObjAddr: 0x5908, symBinAddr: 0x100005F34, symSize: 0x1C }
  - { offsetInCU: 0x2213A, offset: 0x2213A, size: 0x8, addend: 0x0, symName: __ZNSt3__122__compressed_pair_elemINS_9allocatorINS_12basic_stringIcNS_11char_traitsIcEENS1_IcEEEEEELi1ELb1EEC2B8ue170006ENS_18__default_init_tagE, symObjAddr: 0x5924, symBinAddr: 0x100005F50, symSize: 0x2C }
  - { offsetInCU: 0x2216E, offset: 0x2216E, size: 0x8, addend: 0x0, symName: __ZNSt3__19allocatorINS_12basic_stringIcNS_11char_traitsIcEENS0_IcEEEEEC2B8ue170006Ev, symObjAddr: 0x5950, symBinAddr: 0x100005F7C, symSize: 0x2C }
  - { offsetInCU: 0x22198, offset: 0x22198, size: 0x8, addend: 0x0, symName: __ZNSt3__116__non_trivial_ifILb1ENS_9allocatorINS_12basic_stringIcNS_11char_traitsIcEENS1_IcEEEEEEEC2B8ue170006Ev, symObjAddr: 0x597C, symBinAddr: 0x100005FA8, symSize: 0x14 }
  - { offsetInCU: 0x221C2, offset: 0x221C2, size: 0x8, addend: 0x0, symName: __ZNSt3__16vectorIP5parseNS_9allocatorIS2_EEED2B8ue170006Ev, symObjAddr: 0x5990, symBinAddr: 0x100005FBC, symSize: 0x3C }
  - { offsetInCU: 0x221EC, offset: 0x221EC, size: 0x8, addend: 0x0, symName: __ZNSt3__16vectorIP5parseNS_9allocatorIS2_EEE16__destroy_vectorC1B8ue170006ERS5_, symObjAddr: 0x59CC, symBinAddr: 0x100005FF8, symSize: 0x34 }
  - { offsetInCU: 0x22225, offset: 0x22225, size: 0x8, addend: 0x0, symName: __ZNSt3__16vectorIP5parseNS_9allocatorIS2_EEE16__destroy_vectorclB8ue170006Ev, symObjAddr: 0x5A00, symBinAddr: 0x10000602C, symSize: 0x90 }
  - { offsetInCU: 0x2224B, offset: 0x2224B, size: 0x8, addend: 0x0, symName: __ZNSt3__16vectorIP5parseNS_9allocatorIS2_EEE16__destroy_vectorC2B8ue170006ERS5_, symObjAddr: 0x5A90, symBinAddr: 0x1000060BC, symSize: 0x20 }
  - { offsetInCU: 0x22284, offset: 0x22284, size: 0x8, addend: 0x0, symName: __ZNSt3__16vectorIP5parseNS_9allocatorIS2_EEE7__clearB8ue170006Ev, symObjAddr: 0x5AB0, symBinAddr: 0x1000060DC, symSize: 0x28 }
  - { offsetInCU: 0x222AA, offset: 0x222AA, size: 0x8, addend: 0x0, symName: __ZNKSt3__16vectorIP5parseNS_9allocatorIS2_EEE17__annotate_deleteB8ue170006Ev, symObjAddr: 0x5AD8, symBinAddr: 0x100006104, symSize: 0xB8 }
  - { offsetInCU: 0x222D0, offset: 0x222D0, size: 0x8, addend: 0x0, symName: __ZNSt3__116allocator_traitsINS_9allocatorIP5parseEEE10deallocateB8ue170006ERS4_PS3_m, symObjAddr: 0x5B90, symBinAddr: 0x1000061BC, symSize: 0x34 }
  - { offsetInCU: 0x22312, offset: 0x22312, size: 0x8, addend: 0x0, symName: __ZNSt3__16vectorIP5parseNS_9allocatorIS2_EEE7__allocB8ue170006Ev, symObjAddr: 0x5BC4, symBinAddr: 0x1000061F0, symSize: 0x28 }
  - { offsetInCU: 0x22338, offset: 0x22338, size: 0x8, addend: 0x0, symName: __ZNKSt3__16vectorIP5parseNS_9allocatorIS2_EEE8capacityB8ue170006Ev, symObjAddr: 0x5BEC, symBinAddr: 0x100006218, symSize: 0x40 }
  - { offsetInCU: 0x2235E, offset: 0x2235E, size: 0x8, addend: 0x0, symName: __ZNSt3__16vectorIP5parseNS_9allocatorIS2_EEE22__base_destruct_at_endB8ue170006EPS2_, symObjAddr: 0x5C2C, symBinAddr: 0x100006258, symSize: 0xA0 }
  - { offsetInCU: 0x223A2, offset: 0x223A2, size: 0x8, addend: 0x0, symName: __ZNSt3__116allocator_traitsINS_9allocatorIP5parseEEE7destroyB8ue170006IS3_vEEvRS4_PT_, symObjAddr: 0x5CCC, symBinAddr: 0x1000062F8, symSize: 0x2C }
  - { offsetInCU: 0x223DF, offset: 0x223DF, size: 0x8, addend: 0x0, symName: __ZNSt3__19allocatorIP5parseE7destroyB8ue170006EPS2_, symObjAddr: 0x5D0C, symBinAddr: 0x100006338, symSize: 0x14 }
  - { offsetInCU: 0x22413, offset: 0x22413, size: 0x8, addend: 0x0, symName: __ZNKSt3__16vectorIP5parseNS_9allocatorIS2_EEE31__annotate_contiguous_containerB8ue170006EPKvS7_S7_S7_, symObjAddr: 0x5D20, symBinAddr: 0x10000634C, symSize: 0x20 }
  - { offsetInCU: 0x22465, offset: 0x22465, size: 0x8, addend: 0x0, symName: __ZNKSt3__16vectorIP5parseNS_9allocatorIS2_EEE4dataB8ue170006Ev, symObjAddr: 0x5D40, symBinAddr: 0x10000636C, symSize: 0x28 }
  - { offsetInCU: 0x2248B, offset: 0x2248B, size: 0x8, addend: 0x0, symName: __ZNKSt3__16vectorIP5parseNS_9allocatorIS2_EEE4sizeB8ue170006Ev, symObjAddr: 0x5D68, symBinAddr: 0x100006394, symSize: 0x28 }
  - { offsetInCU: 0x224B1, offset: 0x224B1, size: 0x8, addend: 0x0, symName: __ZNSt3__19allocatorIP5parseE10deallocateB8ue170006EPS2_m, symObjAddr: 0x5D90, symBinAddr: 0x1000063BC, symSize: 0x70 }
  - { offsetInCU: 0x224F3, offset: 0x224F3, size: 0x8, addend: 0x0, symName: __ZNSt3__117__compressed_pairIPP5parseNS_9allocatorIS2_EEE6secondB8ue170006Ev, symObjAddr: 0x5E88, symBinAddr: 0x1000064B4, symSize: 0x24 }
  - { offsetInCU: 0x22519, offset: 0x22519, size: 0x8, addend: 0x0, symName: __ZNSt3__122__compressed_pair_elemINS_9allocatorIP5parseEELi1ELb1EE5__getB8ue170006Ev, symObjAddr: 0x5EAC, symBinAddr: 0x1000064D8, symSize: 0x14 }
  - { offsetInCU: 0x2253F, offset: 0x2253F, size: 0x8, addend: 0x0, symName: __ZNKSt3__16vectorIP5parseNS_9allocatorIS2_EEE9__end_capB8ue170006Ev, symObjAddr: 0x5EC0, symBinAddr: 0x1000064EC, symSize: 0x28 }
  - { offsetInCU: 0x22565, offset: 0x22565, size: 0x8, addend: 0x0, symName: __ZNKSt3__117__compressed_pairIPP5parseNS_9allocatorIS2_EEE5firstB8ue170006Ev, symObjAddr: 0x5EE8, symBinAddr: 0x100006514, symSize: 0x24 }
  - { offsetInCU: 0x2258B, offset: 0x2258B, size: 0x8, addend: 0x0, symName: __ZNKSt3__122__compressed_pair_elemIPP5parseLi0ELb0EE5__getB8ue170006Ev, symObjAddr: 0x5F0C, symBinAddr: 0x100006538, symSize: 0x14 }
  - { offsetInCU: 0x225B1, offset: 0x225B1, size: 0x8, addend: 0x0, symName: __ZNSt3__13mapINS_12basic_stringIcNS_11char_traitsIcEENS_9allocatorIcEEEEP6parserNS_4lessIS6_EENS4_INS_4pairIKS6_S8_EEEEED2B8ue170006Ev, symObjAddr: 0x5F20, symBinAddr: 0x10000654C, symSize: 0x2C }
  - { offsetInCU: 0x225DB, offset: 0x225DB, size: 0x8, addend: 0x0, symName: __ZNSt3__16__treeINS_12__value_typeINS_12basic_stringIcNS_11char_traitsIcEENS_9allocatorIcEEEEP6parserEENS_19__map_value_compareIS7_SA_NS_4lessIS7_EELb1EEENS5_ISA_EEED1Ev, symObjAddr: 0x5F4C, symBinAddr: 0x100006578, symSize: 0x2C }
  - { offsetInCU: 0x22607, offset: 0x22607, size: 0x8, addend: 0x0, symName: __ZNSt3__16__treeINS_12__value_typeINS_12basic_stringIcNS_11char_traitsIcEENS_9allocatorIcEEEEP6parserEENS_19__map_value_compareIS7_SA_NS_4lessIS7_EELb1EEENS5_ISA_EEED2Ev, symObjAddr: 0x5F78, symBinAddr: 0x1000065A4, symSize: 0x38 }
  - { offsetInCU: 0x22633, offset: 0x22633, size: 0x8, addend: 0x0, symName: __ZNSt3__16__treeINS_12__value_typeINS_12basic_stringIcNS_11char_traitsIcEENS_9allocatorIcEEEEP6parserEENS_19__map_value_compareIS7_SA_NS_4lessIS7_EELb1EEENS5_ISA_EEE7destroyEPNS_11__tree_nodeISA_PvEE, symObjAddr: 0x5FB0, symBinAddr: 0x1000065DC, symSize: 0xC0 }
  - { offsetInCU: 0x22687, offset: 0x22687, size: 0x8, addend: 0x0, symName: __ZNKSt3__16__treeINS_12__value_typeINS_12basic_stringIcNS_11char_traitsIcEENS_9allocatorIcEEEEP6parserEENS_19__map_value_compareIS7_SA_NS_4lessIS7_EELb1EEENS5_ISA_EEE6__rootB8ue170006Ev, symObjAddr: 0x6070, symBinAddr: 0x10000669C, symSize: 0x28 }
  - { offsetInCU: 0x226AD, offset: 0x226AD, size: 0x8, addend: 0x0, symName: __ZNSt3__16__treeINS_12__value_typeINS_12basic_stringIcNS_11char_traitsIcEENS_9allocatorIcEEEEP6parserEENS_19__map_value_compareIS7_SA_NS_4lessIS7_EELb1EEENS5_ISA_EEE12__node_allocB8ue170006Ev, symObjAddr: 0x6098, symBinAddr: 0x1000066C4, symSize: 0x28 }
  - { offsetInCU: 0x226D3, offset: 0x226D3, size: 0x8, addend: 0x0, symName: __ZNSt3__116allocator_traitsINS_9allocatorINS_11__tree_nodeINS_12__value_typeINS_12basic_stringIcNS_11char_traitsIcEENS1_IcEEEEP6parserEEPvEEEEE7destroyB8ue170006INS_4pairIKS8_SA_EEvvEEvRSE_PT_, symObjAddr: 0x60C0, symBinAddr: 0x1000066EC, symSize: 0x28 }
  - { offsetInCU: 0x2270D, offset: 0x2270D, size: 0x8, addend: 0x0, symName: __ZNSt3__122__tree_key_value_typesINS_12__value_typeINS_12basic_stringIcNS_11char_traitsIcEENS_9allocatorIcEEEEP6parserEEE9__get_ptrB8ue170006ERSA_, symObjAddr: 0x60E8, symBinAddr: 0x100006714, symSize: 0x24 }
  - { offsetInCU: 0x22731, offset: 0x22731, size: 0x8, addend: 0x0, symName: __ZNSt3__116allocator_traitsINS_9allocatorINS_11__tree_nodeINS_12__value_typeINS_12basic_stringIcNS_11char_traitsIcEENS1_IcEEEEP6parserEEPvEEEEE10deallocateB8ue170006ERSE_PSD_m, symObjAddr: 0x610C, symBinAddr: 0x100006738, symSize: 0x34 }
  - { offsetInCU: 0x22773, offset: 0x22773, size: 0x8, addend: 0x0, symName: __ZNSt3__117__compressed_pairINS_15__tree_end_nodeIPNS_16__tree_node_baseIPvEEEENS_9allocatorINS_11__tree_nodeINS_12__value_typeINS_12basic_stringIcNS_11char_traitsIcEENS7_IcEEEEP6parserEES3_EEEEE6secondB8ue170006Ev, symObjAddr: 0x6140, symBinAddr: 0x10000676C, symSize: 0x24 }
  - { offsetInCU: 0x22799, offset: 0x22799, size: 0x8, addend: 0x0, symName: __ZNSt3__122__compressed_pair_elemINS_9allocatorINS_11__tree_nodeINS_12__value_typeINS_12basic_stringIcNS_11char_traitsIcEENS1_IcEEEEP6parserEEPvEEEELi1ELb1EE5__getB8ue170006Ev, symObjAddr: 0x6164, symBinAddr: 0x100006790, symSize: 0x14 }
  - { offsetInCU: 0x227BF, offset: 0x227BF, size: 0x8, addend: 0x0, symName: __ZNSt3__14pairIKNS_12basic_stringIcNS_11char_traitsIcEENS_9allocatorIcEEEEP6parserED1Ev, symObjAddr: 0x6178, symBinAddr: 0x1000067A4, symSize: 0x2C }
  - { offsetInCU: 0x227EB, offset: 0x227EB, size: 0x8, addend: 0x0, symName: __ZNSt3__14pairIKNS_12basic_stringIcNS_11char_traitsIcEENS_9allocatorIcEEEEP6parserED2Ev, symObjAddr: 0x61A4, symBinAddr: 0x1000067D0, symSize: 0x2C }
  - { offsetInCU: 0x22817, offset: 0x22817, size: 0x8, addend: 0x0, symName: __ZNSt3__112__value_typeINS_12basic_stringIcNS_11char_traitsIcEENS_9allocatorIcEEEEP6parserE11__get_valueB8ue170006Ev, symObjAddr: 0x61D0, symBinAddr: 0x1000067FC, symSize: 0x14 }
  - { offsetInCU: 0x2283D, offset: 0x2283D, size: 0x8, addend: 0x0, symName: __ZNSt3__19allocatorINS_11__tree_nodeINS_12__value_typeINS_12basic_stringIcNS_11char_traitsIcEENS0_IcEEEEP6parserEEPvEEE10deallocateB8ue170006EPSC_m, symObjAddr: 0x61E4, symBinAddr: 0x100006810, symSize: 0x70 }
  - { offsetInCU: 0x2287F, offset: 0x2287F, size: 0x8, addend: 0x0, symName: __ZNKSt3__16__treeINS_12__value_typeINS_12basic_stringIcNS_11char_traitsIcEENS_9allocatorIcEEEEP6parserEENS_19__map_value_compareIS7_SA_NS_4lessIS7_EELb1EEENS5_ISA_EEE10__end_nodeB8ue170006Ev, symObjAddr: 0x6254, symBinAddr: 0x100006880, symSize: 0x2C }
  - { offsetInCU: 0x228A5, offset: 0x228A5, size: 0x8, addend: 0x0, symName: __ZNKSt3__117__compressed_pairINS_15__tree_end_nodeIPNS_16__tree_node_baseIPvEEEENS_9allocatorINS_11__tree_nodeINS_12__value_typeINS_12basic_stringIcNS_11char_traitsIcEENS7_IcEEEEP6parserEES3_EEEEE5firstB8ue170006Ev, symObjAddr: 0x6280, symBinAddr: 0x1000068AC, symSize: 0x24 }
  - { offsetInCU: 0x228CB, offset: 0x228CB, size: 0x8, addend: 0x0, symName: __ZNKSt3__122__compressed_pair_elemINS_15__tree_end_nodeIPNS_16__tree_node_baseIPvEEEELi0ELb0EE5__getB8ue170006Ev, symObjAddr: 0x62A4, symBinAddr: 0x1000068D0, symSize: 0x14 }
  - { offsetInCU: 0x228F1, offset: 0x228F1, size: 0x8, addend: 0x0, symName: __ZNSt3__13mapINS_12basic_stringIcNS_11char_traitsIcEENS_9allocatorIcEEEEiNS_4lessIS6_EENS4_INS_4pairIKS6_iEEEEED2B8ue170006Ev, symObjAddr: 0x62B8, symBinAddr: 0x1000068E4, symSize: 0x2C }
  - { offsetInCU: 0x2291B, offset: 0x2291B, size: 0x8, addend: 0x0, symName: __ZNSt3__16__treeINS_12__value_typeINS_12basic_stringIcNS_11char_traitsIcEENS_9allocatorIcEEEEiEENS_19__map_value_compareIS7_S8_NS_4lessIS7_EELb1EEENS5_IS8_EEED1Ev, symObjAddr: 0x62E4, symBinAddr: 0x100006910, symSize: 0x2C }
  - { offsetInCU: 0x22947, offset: 0x22947, size: 0x8, addend: 0x0, symName: __ZNSt3__16__treeINS_12__value_typeINS_12basic_stringIcNS_11char_traitsIcEENS_9allocatorIcEEEEiEENS_19__map_value_compareIS7_S8_NS_4lessIS7_EELb1EEENS5_IS8_EEED2Ev, symObjAddr: 0x6310, symBinAddr: 0x10000693C, symSize: 0x38 }
  - { offsetInCU: 0x22973, offset: 0x22973, size: 0x8, addend: 0x0, symName: __ZNSt3__16__treeINS_12__value_typeINS_12basic_stringIcNS_11char_traitsIcEENS_9allocatorIcEEEEiEENS_19__map_value_compareIS7_S8_NS_4lessIS7_EELb1EEENS5_IS8_EEE7destroyEPNS_11__tree_nodeIS8_PvEE, symObjAddr: 0x6348, symBinAddr: 0x100006974, symSize: 0xC0 }
  - { offsetInCU: 0x229C7, offset: 0x229C7, size: 0x8, addend: 0x0, symName: __ZNKSt3__16__treeINS_12__value_typeINS_12basic_stringIcNS_11char_traitsIcEENS_9allocatorIcEEEEiEENS_19__map_value_compareIS7_S8_NS_4lessIS7_EELb1EEENS5_IS8_EEE6__rootB8ue170006Ev, symObjAddr: 0x6408, symBinAddr: 0x100006A34, symSize: 0x28 }
  - { offsetInCU: 0x229ED, offset: 0x229ED, size: 0x8, addend: 0x0, symName: __ZNSt3__16__treeINS_12__value_typeINS_12basic_stringIcNS_11char_traitsIcEENS_9allocatorIcEEEEiEENS_19__map_value_compareIS7_S8_NS_4lessIS7_EELb1EEENS5_IS8_EEE12__node_allocB8ue170006Ev, symObjAddr: 0x6430, symBinAddr: 0x100006A5C, symSize: 0x28 }
  - { offsetInCU: 0x22A13, offset: 0x22A13, size: 0x8, addend: 0x0, symName: __ZNSt3__116allocator_traitsINS_9allocatorINS_11__tree_nodeINS_12__value_typeINS_12basic_stringIcNS_11char_traitsIcEENS1_IcEEEEiEEPvEEEEE7destroyB8ue170006INS_4pairIKS8_iEEvvEEvRSC_PT_, symObjAddr: 0x6458, symBinAddr: 0x100006A84, symSize: 0x28 }
  - { offsetInCU: 0x22A4D, offset: 0x22A4D, size: 0x8, addend: 0x0, symName: __ZNSt3__122__tree_key_value_typesINS_12__value_typeINS_12basic_stringIcNS_11char_traitsIcEENS_9allocatorIcEEEEiEEE9__get_ptrB8ue170006ERS8_, symObjAddr: 0x6480, symBinAddr: 0x100006AAC, symSize: 0x24 }
  - { offsetInCU: 0x22A71, offset: 0x22A71, size: 0x8, addend: 0x0, symName: __ZNSt3__116allocator_traitsINS_9allocatorINS_11__tree_nodeINS_12__value_typeINS_12basic_stringIcNS_11char_traitsIcEENS1_IcEEEEiEEPvEEEEE10deallocateB8ue170006ERSC_PSB_m, symObjAddr: 0x64A4, symBinAddr: 0x100006AD0, symSize: 0x34 }
  - { offsetInCU: 0x22AB3, offset: 0x22AB3, size: 0x8, addend: 0x0, symName: __ZNSt3__117__compressed_pairINS_15__tree_end_nodeIPNS_16__tree_node_baseIPvEEEENS_9allocatorINS_11__tree_nodeINS_12__value_typeINS_12basic_stringIcNS_11char_traitsIcEENS7_IcEEEEiEES3_EEEEE6secondB8ue170006Ev, symObjAddr: 0x64D8, symBinAddr: 0x100006B04, symSize: 0x24 }
  - { offsetInCU: 0x22AD9, offset: 0x22AD9, size: 0x8, addend: 0x0, symName: __ZNSt3__122__compressed_pair_elemINS_9allocatorINS_11__tree_nodeINS_12__value_typeINS_12basic_stringIcNS_11char_traitsIcEENS1_IcEEEEiEEPvEEEELi1ELb1EE5__getB8ue170006Ev, symObjAddr: 0x64FC, symBinAddr: 0x100006B28, symSize: 0x14 }
  - { offsetInCU: 0x22AFF, offset: 0x22AFF, size: 0x8, addend: 0x0, symName: __ZNSt3__14pairIKNS_12basic_stringIcNS_11char_traitsIcEENS_9allocatorIcEEEEiED1Ev, symObjAddr: 0x6510, symBinAddr: 0x100006B3C, symSize: 0x2C }
  - { offsetInCU: 0x22B2B, offset: 0x22B2B, size: 0x8, addend: 0x0, symName: __ZNSt3__14pairIKNS_12basic_stringIcNS_11char_traitsIcEENS_9allocatorIcEEEEiED2Ev, symObjAddr: 0x653C, symBinAddr: 0x100006B68, symSize: 0x2C }
  - { offsetInCU: 0x22B57, offset: 0x22B57, size: 0x8, addend: 0x0, symName: __ZNSt3__112__value_typeINS_12basic_stringIcNS_11char_traitsIcEENS_9allocatorIcEEEEiE11__get_valueB8ue170006Ev, symObjAddr: 0x6568, symBinAddr: 0x100006B94, symSize: 0x14 }
  - { offsetInCU: 0x22B7D, offset: 0x22B7D, size: 0x8, addend: 0x0, symName: __ZNSt3__19allocatorINS_11__tree_nodeINS_12__value_typeINS_12basic_stringIcNS_11char_traitsIcEENS0_IcEEEEiEEPvEEE10deallocateB8ue170006EPSA_m, symObjAddr: 0x657C, symBinAddr: 0x100006BA8, symSize: 0x70 }
  - { offsetInCU: 0x22BBF, offset: 0x22BBF, size: 0x8, addend: 0x0, symName: __ZNKSt3__16__treeINS_12__value_typeINS_12basic_stringIcNS_11char_traitsIcEENS_9allocatorIcEEEEiEENS_19__map_value_compareIS7_S8_NS_4lessIS7_EELb1EEENS5_IS8_EEE10__end_nodeB8ue170006Ev, symObjAddr: 0x65EC, symBinAddr: 0x100006C18, symSize: 0x2C }
  - { offsetInCU: 0x22BE5, offset: 0x22BE5, size: 0x8, addend: 0x0, symName: __ZNKSt3__117__compressed_pairINS_15__tree_end_nodeIPNS_16__tree_node_baseIPvEEEENS_9allocatorINS_11__tree_nodeINS_12__value_typeINS_12basic_stringIcNS_11char_traitsIcEENS7_IcEEEEiEES3_EEEEE5firstB8ue170006Ev, symObjAddr: 0x6618, symBinAddr: 0x100006C44, symSize: 0x24 }
  - { offsetInCU: 0x22C0B, offset: 0x22C0B, size: 0x8, addend: 0x0, symName: __ZNKSt3__16vectorI5tokenNS_9allocatorIS1_EEE5emptyB8ue170006Ev, symObjAddr: 0x663C, symBinAddr: 0x100006C68, symSize: 0x28 }
  - { offsetInCU: 0x22C31, offset: 0x22C31, size: 0x8, addend: 0x0, symName: __ZN6parser15parse_saveLinesENSt3__16vectorI5tokenNS0_9allocatorIS2_EEEE, symObjAddr: 0x6664, symBinAddr: 0x100006C90, symSize: 0x2C8 }
  - { offsetInCU: 0x22CB4, offset: 0x22CB4, size: 0x8, addend: 0x0, symName: __ZN6parser11validSyntaxENSt3__16vectorI5tokenNS0_9allocatorIS2_EEEEi, symObjAddr: 0x692C, symBinAddr: 0x100006F58, symSize: 0x518 }
  - { offsetInCU: 0x22CF7, offset: 0x22CF7, size: 0x8, addend: 0x0, symName: __ZN5tokenC1ERKS_, symObjAddr: 0x6E44, symBinAddr: 0x100007470, symSize: 0x34 }
  - { offsetInCU: 0x22D2C, offset: 0x22D2C, size: 0x8, addend: 0x0, symName: __ZN5parseC1E5token, symObjAddr: 0x6E78, symBinAddr: 0x1000074A4, symSize: 0x34 }
  - { offsetInCU: 0x22D65, offset: 0x22D65, size: 0x8, addend: 0x0, symName: __ZNSt3__16vectorIP5parseNS_9allocatorIS2_EEE9push_backB8ue170006ERKS2_, symObjAddr: 0x6EAC, symBinAddr: 0x1000074D8, symSize: 0x6C }
  - { offsetInCU: 0x22D9C, offset: 0x22D9C, size: 0x8, addend: 0x0, symName: __ZNKSt3__16vectorI5tokenNS_9allocatorIS1_EEEixB8ue170006Em, symObjAddr: 0x6F18, symBinAddr: 0x100007544, symSize: 0x2C }
  - { offsetInCU: 0x22DD3, offset: 0x22DD3, size: 0x8, addend: 0x0, symName: __ZN5tokenC2ERKS_, symObjAddr: 0x6F44, symBinAddr: 0x100007570, symSize: 0x84 }
  - { offsetInCU: 0x22E08, offset: 0x22E08, size: 0x8, addend: 0x0, symName: __ZN5parseC2E5token, symObjAddr: 0x6FC8, symBinAddr: 0x1000075F4, symSize: 0x38 }
  - { offsetInCU: 0x22E41, offset: 0x22E41, size: 0x8, addend: 0x0, symName: __ZNSt3__16vectorIP5parseNS_9allocatorIS2_EEE9__end_capB8ue170006Ev, symObjAddr: 0x7000, symBinAddr: 0x10000762C, symSize: 0x28 }
  - { offsetInCU: 0x22E67, offset: 0x22E67, size: 0x8, addend: 0x0, symName: __ZNSt3__16vectorIP5parseNS_9allocatorIS2_EEE22__construct_one_at_endB8ue170006IJRKS2_EEEvDpOT_, symObjAddr: 0x7028, symBinAddr: 0x100007654, symSize: 0x98 }
  - { offsetInCU: 0x22EB6, offset: 0x22EB6, size: 0x8, addend: 0x0, symName: __ZNSt3__16vectorIP5parseNS_9allocatorIS2_EEE21__push_back_slow_pathIRKS2_EEvOT_, symObjAddr: 0x70C0, symBinAddr: 0x1000076EC, symSize: 0xE0 }
  - { offsetInCU: 0x22F14, offset: 0x22F14, size: 0x8, addend: 0x0, symName: __ZNSt3__117__compressed_pairIPP5parseNS_9allocatorIS2_EEE5firstB8ue170006Ev, symObjAddr: 0x71A0, symBinAddr: 0x1000077CC, symSize: 0x24 }
  - { offsetInCU: 0x22F3A, offset: 0x22F3A, size: 0x8, addend: 0x0, symName: __ZNSt3__122__compressed_pair_elemIPP5parseLi0ELb0EE5__getB8ue170006Ev, symObjAddr: 0x71C4, symBinAddr: 0x1000077F0, symSize: 0x14 }
  - { offsetInCU: 0x22F7C, offset: 0x22F7C, size: 0x8, addend: 0x0, symName: __ZNSt3__16vectorIP5parseNS_9allocatorIS2_EEE21_ConstructTransactionC1B8ue170006ERS5_m, symObjAddr: 0x71D8, symBinAddr: 0x100007804, symSize: 0x3C }
  - { offsetInCU: 0x22FC4, offset: 0x22FC4, size: 0x8, addend: 0x0, symName: __ZNSt3__116allocator_traitsINS_9allocatorIP5parseEEE9constructB8ue170006IS3_JRKS3_EvEEvRS4_PT_DpOT0_, symObjAddr: 0x7214, symBinAddr: 0x100007840, symSize: 0x34 }
  - { offsetInCU: 0x2301B, offset: 0x2301B, size: 0x8, addend: 0x0, symName: __ZNSt3__16vectorIP5parseNS_9allocatorIS2_EEE21_ConstructTransactionD1B8ue170006Ev, symObjAddr: 0x7248, symBinAddr: 0x100007874, symSize: 0x2C }
  - { offsetInCU: 0x23045, offset: 0x23045, size: 0x8, addend: 0x0, symName: __ZNSt3__16vectorIP5parseNS_9allocatorIS2_EEE21_ConstructTransactionC2B8ue170006ERS5_m, symObjAddr: 0x7274, symBinAddr: 0x1000078A0, symSize: 0x44 }
  - { offsetInCU: 0x2308D, offset: 0x2308D, size: 0x8, addend: 0x0, symName: __ZNSt3__19allocatorIP5parseE9constructB8ue170006IS2_JRKS2_EEEvPT_DpOT0_, symObjAddr: 0x72B8, symBinAddr: 0x1000078E4, symSize: 0x28 }
  - { offsetInCU: 0x230E3, offset: 0x230E3, size: 0x8, addend: 0x0, symName: __ZNSt3__16vectorIP5parseNS_9allocatorIS2_EEE21_ConstructTransactionD2B8ue170006Ev, symObjAddr: 0x72E0, symBinAddr: 0x10000790C, symSize: 0x20 }
  - { offsetInCU: 0x2310D, offset: 0x2310D, size: 0x8, addend: 0x0, symName: __ZNKSt3__16vectorIP5parseNS_9allocatorIS2_EEE11__recommendB8ue170006Em, symObjAddr: 0x7300, symBinAddr: 0x10000792C, symSize: 0xB4 }
  - { offsetInCU: 0x23162, offset: 0x23162, size: 0x8, addend: 0x0, symName: __ZNSt3__114__split_bufferIP5parseRNS_9allocatorIS2_EEEC1EmmS5_, symObjAddr: 0x73B4, symBinAddr: 0x1000079E0, symSize: 0x44 }
  - { offsetInCU: 0x231B8, offset: 0x231B8, size: 0x8, addend: 0x0, symName: __ZNSt3__114__split_bufferIP5parseRNS_9allocatorIS2_EEED1Ev, symObjAddr: 0x7508, symBinAddr: 0x100007B34, symSize: 0x2C }
  - { offsetInCU: 0x231E4, offset: 0x231E4, size: 0x8, addend: 0x0, symName: __ZNKSt3__16vectorIP5parseNS_9allocatorIS2_EEE8max_sizeEv, symObjAddr: 0x7534, symBinAddr: 0x100007B60, symSize: 0x74 }
  - { offsetInCU: 0x2320C, offset: 0x2320C, size: 0x8, addend: 0x0, symName: __ZNKSt3__16vectorIP5parseNS_9allocatorIS2_EEE20__throw_length_errorB8ue170006Ev, symObjAddr: 0x75A8, symBinAddr: 0x100007BD4, symSize: 0x1C }
  - { offsetInCU: 0x2323D, offset: 0x2323D, size: 0x8, addend: 0x0, symName: __ZNSt3__116allocator_traitsINS_9allocatorIP5parseEEE8max_sizeB8ue170006IS4_vEEmRKS4_, symObjAddr: 0x761C, symBinAddr: 0x100007C48, symSize: 0x24 }
  - { offsetInCU: 0x2326B, offset: 0x2326B, size: 0x8, addend: 0x0, symName: __ZNKSt3__16vectorIP5parseNS_9allocatorIS2_EEE7__allocB8ue170006Ev, symObjAddr: 0x7640, symBinAddr: 0x100007C6C, symSize: 0x28 }
  - { offsetInCU: 0x23291, offset: 0x23291, size: 0x8, addend: 0x0, symName: __ZNSt3__114numeric_limitsIlE3maxB8ue170006Ev, symObjAddr: 0x7668, symBinAddr: 0x100007C94, symSize: 0x14 }
  - { offsetInCU: 0x232B0, offset: 0x232B0, size: 0x8, addend: 0x0, symName: __ZNKSt3__16__lessIvvEclB8ue170006ImmEEbRKT_RKT0_, symObjAddr: 0x76D0, symBinAddr: 0x100007CFC, symSize: 0x34 }
  - { offsetInCU: 0x23304, offset: 0x23304, size: 0x8, addend: 0x0, symName: __ZNKSt3__19allocatorIP5parseE8max_sizeB8ue170006Ev, symObjAddr: 0x7704, symBinAddr: 0x100007D30, symSize: 0x14 }
  - { offsetInCU: 0x2332A, offset: 0x2332A, size: 0x8, addend: 0x0, symName: __ZNKSt3__117__compressed_pairIPP5parseNS_9allocatorIS2_EEE6secondB8ue170006Ev, symObjAddr: 0x7718, symBinAddr: 0x100007D44, symSize: 0x24 }
  - { offsetInCU: 0x23350, offset: 0x23350, size: 0x8, addend: 0x0, symName: __ZNKSt3__122__compressed_pair_elemINS_9allocatorIP5parseEELi1ELb1EE5__getB8ue170006Ev, symObjAddr: 0x773C, symBinAddr: 0x100007D68, symSize: 0x14 }
  - { offsetInCU: 0x23376, offset: 0x23376, size: 0x8, addend: 0x0, symName: __ZNSt3__123__libcpp_numeric_limitsIlLb1EE3maxB8ue170006Ev, symObjAddr: 0x7750, symBinAddr: 0x100007D7C, symSize: 0x8 }
  - { offsetInCU: 0x2338A, offset: 0x2338A, size: 0x8, addend: 0x0, symName: __ZNSt12length_errorC1B8ue170006EPKc, symObjAddr: 0x77BC, symBinAddr: 0x100007DE8, symSize: 0x34 }
  - { offsetInCU: 0x233C2, offset: 0x233C2, size: 0x8, addend: 0x0, symName: __ZNSt12length_errorC2B8ue170006EPKc, symObjAddr: 0x77F0, symBinAddr: 0x100007E1C, symSize: 0x4C }
  - { offsetInCU: 0x233FA, offset: 0x233FA, size: 0x8, addend: 0x0, symName: __ZNSt3__114__split_bufferIP5parseRNS_9allocatorIS2_EEEC2EmmS5_, symObjAddr: 0x7890, symBinAddr: 0x100007EBC, symSize: 0xD4 }
  - { offsetInCU: 0x2346D, offset: 0x2346D, size: 0x8, addend: 0x0, symName: __ZNSt3__117__compressed_pairIPP5parseRNS_9allocatorIS2_EEEC1B8ue170006IDnS6_EEOT_OT0_, symObjAddr: 0x7964, symBinAddr: 0x100007F90, symSize: 0x3C }
  - { offsetInCU: 0x234C5, offset: 0x234C5, size: 0x8, addend: 0x0, symName: __ZNSt3__114__split_bufferIP5parseRNS_9allocatorIS2_EEE7__allocB8ue170006Ev, symObjAddr: 0x79E0, symBinAddr: 0x10000800C, symSize: 0x28 }
  - { offsetInCU: 0x234EB, offset: 0x234EB, size: 0x8, addend: 0x0, symName: __ZNSt3__114__split_bufferIP5parseRNS_9allocatorIS2_EEE9__end_capB8ue170006Ev, symObjAddr: 0x7A08, symBinAddr: 0x100008034, symSize: 0x28 }
  - { offsetInCU: 0x23511, offset: 0x23511, size: 0x8, addend: 0x0, symName: __ZNSt3__117__compressed_pairIPP5parseRNS_9allocatorIS2_EEEC2B8ue170006IDnS6_EEOT_OT0_, symObjAddr: 0x7A30, symBinAddr: 0x10000805C, symSize: 0x48 }
  - { offsetInCU: 0x23569, offset: 0x23569, size: 0x8, addend: 0x0, symName: __ZNSt3__122__compressed_pair_elemIRNS_9allocatorIP5parseEELi1ELb0EEC2B8ue170006IS5_vEEOT_, symObjAddr: 0x7A78, symBinAddr: 0x1000080A4, symSize: 0x20 }
  - { offsetInCU: 0x235AB, offset: 0x235AB, size: 0x8, addend: 0x0, symName: __ZNSt3__19allocatorIP5parseE8allocateB8ue170006Em, symObjAddr: 0x7A98, symBinAddr: 0x1000080C4, symSize: 0x84 }
  - { offsetInCU: 0x235DF, offset: 0x235DF, size: 0x8, addend: 0x0, symName: __ZNSt3__117__compressed_pairIPP5parseRNS_9allocatorIS2_EEE6secondB8ue170006Ev, symObjAddr: 0x7B9C, symBinAddr: 0x1000081C8, symSize: 0x28 }
  - { offsetInCU: 0x23605, offset: 0x23605, size: 0x8, addend: 0x0, symName: __ZNSt3__122__compressed_pair_elemIRNS_9allocatorIP5parseEELi1ELb0EE5__getB8ue170006Ev, symObjAddr: 0x7BC4, symBinAddr: 0x1000081F0, symSize: 0x18 }
  - { offsetInCU: 0x2362B, offset: 0x2362B, size: 0x8, addend: 0x0, symName: __ZNSt3__117__compressed_pairIPP5parseRNS_9allocatorIS2_EEE5firstB8ue170006Ev, symObjAddr: 0x7BDC, symBinAddr: 0x100008208, symSize: 0x24 }
  - { offsetInCU: 0x23651, offset: 0x23651, size: 0x8, addend: 0x0, symName: __ZNSt3__116reverse_iteratorIPP5parseEC1B8ue170006ES3_, symObjAddr: 0x7CE8, symBinAddr: 0x100008314, symSize: 0x34 }
  - { offsetInCU: 0x23689, offset: 0x23689, size: 0x8, addend: 0x0, symName: __ZNKSt3__116reverse_iteratorIPP5parseE4baseB8ue170006Ev, symObjAddr: 0x7D1C, symBinAddr: 0x100008348, symSize: 0x18 }
  - { offsetInCU: 0x236AF, offset: 0x236AF, size: 0x8, addend: 0x0, symName: __ZNKSt3__16vectorIP5parseNS_9allocatorIS2_EEE14__annotate_newB8ue170006Em, symObjAddr: 0x7D70, symBinAddr: 0x10000839C, symSize: 0xAC }
  - { offsetInCU: 0x236E4, offset: 0x236E4, size: 0x8, addend: 0x0, symName: __ZNKSt3__116reverse_iteratorIPP5parseEdeB8ue170006Ev, symObjAddr: 0x7EB4, symBinAddr: 0x1000084E0, symSize: 0x28 }
  - { offsetInCU: 0x23718, offset: 0x23718, size: 0x8, addend: 0x0, symName: __ZNSt3__116reverse_iteratorIPP5parseEppB8ue170006Ev, symObjAddr: 0x7EDC, symBinAddr: 0x100008508, symSize: 0x20 }
  - { offsetInCU: 0x23744, offset: 0x23744, size: 0x8, addend: 0x0, symName: __ZNSt3__119__to_address_helperINS_16reverse_iteratorIPP5parseEEvE6__callB8ue170006ERKS5_, symObjAddr: 0x7F74, symBinAddr: 0x1000085A0, symSize: 0x4C }
  - { offsetInCU: 0x23767, offset: 0x23767, size: 0x8, addend: 0x0, symName: __ZNKSt3__116reverse_iteratorIPP5parseEptB8ue170006Ev, symObjAddr: 0x7FC0, symBinAddr: 0x1000085EC, symSize: 0x24 }
  - { offsetInCU: 0x237B5, offset: 0x237B5, size: 0x8, addend: 0x0, symName: __ZNKSt3__111__move_loopINS_17_ClassicAlgPolicyEEclB8ue170006INS_16reverse_iteratorIPP5parseEES8_S8_EENS_4pairIT_T1_EESA_T0_SB_, symObjAddr: 0x825C, symBinAddr: 0x100008888, symSize: 0xA0 }
  - { offsetInCU: 0x23826, offset: 0x23826, size: 0x8, addend: 0x0, symName: __ZNSt3__18_IterOpsINS_17_ClassicAlgPolicyEE11__iter_moveB8ue170006IRNS_16reverse_iteratorIPP5parseEEEENS_9enable_ifIXsr12is_referenceIDTdeclsr3stdE7declvalIRT_EEEEE5valueEDTclsr3stdE4movedeclsr3stdE7declvalISC_EEEEE4typeEOSB_, symObjAddr: 0x845C, symBinAddr: 0x100008A88, symSize: 0x28 }
  - { offsetInCU: 0x23852, offset: 0x23852, size: 0x8, addend: 0x0, symName: __ZNSt3__18_IterOpsINS_17_ClassicAlgPolicyEE25__validate_iter_referenceB8ue170006IRNS_16reverse_iteratorIPP5parseEEEEvv, symObjAddr: 0x8484, symBinAddr: 0x100008AB0, symSize: 0x4 }
  - { offsetInCU: 0x23870, offset: 0x23870, size: 0x8, addend: 0x0, symName: __ZNSt3__118__unwrap_iter_implINS_16reverse_iteratorIPP5parseEELb0EE8__unwrapB8ue170006ES5_, symObjAddr: 0x8488, symBinAddr: 0x100008AB4, symSize: 0x24 }
  - { offsetInCU: 0x23893, offset: 0x23893, size: 0x8, addend: 0x0, symName: __ZNSt3__14pairINS_16reverse_iteratorIPP5parseEES5_EC1B8ue170006ERKS5_S8_, symObjAddr: 0x84AC, symBinAddr: 0x100008AD8, symSize: 0x3C }
  - { offsetInCU: 0x238D9, offset: 0x238D9, size: 0x8, addend: 0x0, symName: __ZNSt3__14pairINS_16reverse_iteratorIPP5parseEES5_EC2B8ue170006ERKS5_S8_, symObjAddr: 0x84E8, symBinAddr: 0x100008B14, symSize: 0x34 }
  - { offsetInCU: 0x2391F, offset: 0x2391F, size: 0x8, addend: 0x0, symName: __ZNSt3__118__unwrap_iter_implINS_16reverse_iteratorIPP5parseEELb0EE8__rewrapB8ue170006ES5_S5_, symObjAddr: 0x851C, symBinAddr: 0x100008B48, symSize: 0x2C }
  - { offsetInCU: 0x2394C, offset: 0x2394C, size: 0x8, addend: 0x0, symName: __ZNSt3__116reverse_iteratorIPP5parseEC2B8ue170006ES3_, symObjAddr: 0x8548, symBinAddr: 0x100008B74, symSize: 0x28 }
  - { offsetInCU: 0x23984, offset: 0x23984, size: 0x8, addend: 0x0, symName: __ZNSt3__114__split_bufferIP5parseRNS_9allocatorIS2_EEED2Ev, symObjAddr: 0x8570, symBinAddr: 0x100008B9C, symSize: 0x80 }
  - { offsetInCU: 0x239B0, offset: 0x239B0, size: 0x8, addend: 0x0, symName: __ZNSt3__114__split_bufferIP5parseRNS_9allocatorIS2_EEE5clearB8ue170006Ev, symObjAddr: 0x85F0, symBinAddr: 0x100008C1C, symSize: 0x28 }
  - { offsetInCU: 0x239D6, offset: 0x239D6, size: 0x8, addend: 0x0, symName: __ZNKSt3__114__split_bufferIP5parseRNS_9allocatorIS2_EEE8capacityB8ue170006Ev, symObjAddr: 0x8618, symBinAddr: 0x100008C44, symSize: 0x40 }
  - { offsetInCU: 0x239FC, offset: 0x239FC, size: 0x8, addend: 0x0, symName: __ZNSt3__114__split_bufferIP5parseRNS_9allocatorIS2_EEE17__destruct_at_endB8ue170006EPS2_, symObjAddr: 0x8658, symBinAddr: 0x100008C84, symSize: 0x2C }
  - { offsetInCU: 0x23A30, offset: 0x23A30, size: 0x8, addend: 0x0, symName: __ZNSt3__114__split_bufferIP5parseRNS_9allocatorIS2_EEE17__destruct_at_endB8ue170006EPS2_NS_17integral_constantIbLb0EEE, symObjAddr: 0x8684, symBinAddr: 0x100008CB0, symSize: 0x94 }
  - { offsetInCU: 0x23A70, offset: 0x23A70, size: 0x8, addend: 0x0, symName: __ZNKSt3__114__split_bufferIP5parseRNS_9allocatorIS2_EEE9__end_capB8ue170006Ev, symObjAddr: 0x8718, symBinAddr: 0x100008D44, symSize: 0x28 }
  - { offsetInCU: 0x23A96, offset: 0x23A96, size: 0x8, addend: 0x0, symName: __ZNKSt3__117__compressed_pairIPP5parseRNS_9allocatorIS2_EEE5firstB8ue170006Ev, symObjAddr: 0x8740, symBinAddr: 0x100008D6C, symSize: 0x24 }
  - { offsetInCU: 0x23ABC, offset: 0x23ABC, size: 0x8, addend: 0x0, symName: __ZN6parser13parseEvaluateEv, symObjAddr: 0x8764, symBinAddr: 0x100008D90, symSize: 0xEE4 }
  - { offsetInCU: 0x23CE1, offset: 0x23CE1, size: 0x8, addend: 0x0, symName: __ZNSt3__16vectorIP5parseNS_9allocatorIS2_EEEixB8ue170006Em, symObjAddr: 0x9648, symBinAddr: 0x100009C74, symSize: 0x24 }
  - { offsetInCU: 0x23D18, offset: 0x23D18, size: 0x8, addend: 0x0, symName: __ZNSt3__13mapINS_12basic_stringIcNS_11char_traitsIcEENS_9allocatorIcEEEEP6parserNS_4lessIS6_EENS4_INS_4pairIKS6_S8_EEEEEixERSC_, symObjAddr: 0x966C, symBinAddr: 0x100009C98, symSize: 0xC8 }
  - { offsetInCU: 0x23D91, offset: 0x23D91, size: 0x8, addend: 0x0, symName: __ZNKSt3__16vectorINS_12basic_stringIcNS_11char_traitsIcEENS_9allocatorIcEEEENS4_IS6_EEE4sizeB8ue170006Ev, symObjAddr: 0x9734, symBinAddr: 0x100009D60, symSize: 0x28 }
  - { offsetInCU: 0x23DB7, offset: 0x23DB7, size: 0x8, addend: 0x0, symName: __ZN6parser17computeAssignmentEP5parse, symObjAddr: 0x975C, symBinAddr: 0x100009D88, symSize: 0x984 }
  - { offsetInCU: 0x23EC4, offset: 0x23EC4, size: 0x8, addend: 0x0, symName: __ZN6parser8isnumberENSt3__112basic_stringIcNS0_11char_traitsIcEENS0_9allocatorIcEEEE, symObjAddr: 0xA0F8, symBinAddr: 0x10000A724, symSize: 0xB8 }
  - { offsetInCU: 0x23F17, offset: 0x23F17, size: 0x8, addend: 0x0, symName: __ZNSt3__13mapINS_12basic_stringIcNS_11char_traitsIcEENS_9allocatorIcEEEEiNS_4lessIS6_EENS4_INS_4pairIKS6_iEEEEEixERSA_, symObjAddr: 0xA1B0, symBinAddr: 0x10000A7DC, symSize: 0xC8 }
  - { offsetInCU: 0x23F90, offset: 0x23F90, size: 0x8, addend: 0x0, symName: __ZNSt3__16vectorINS_12basic_stringIcNS_11char_traitsIcEENS_9allocatorIcEEEENS4_IS6_EEEixB8ue170006Em, symObjAddr: 0xA278, symBinAddr: 0x10000A8A4, symSize: 0x2C }
  - { offsetInCU: 0x23FC7, offset: 0x23FC7, size: 0x8, addend: 0x0, symName: __ZN6parser10funcResultEv, symObjAddr: 0xA2A4, symBinAddr: 0x10000A8D0, symSize: 0x30 }
  - { offsetInCU: 0x23FED, offset: 0x23FED, size: 0x8, addend: 0x0, symName: __ZNSt3__13mapINS_12basic_stringIcNS_11char_traitsIcEENS_9allocatorIcEEEEiNS_4lessIS6_EENS4_INS_4pairIKS6_iEEEEE4findB8ue170006ERSA_, symObjAddr: 0xA2D4, symBinAddr: 0x10000A900, symSize: 0x40 }
  - { offsetInCU: 0x24022, offset: 0x24022, size: 0x8, addend: 0x0, symName: __ZNSt3__13mapINS_12basic_stringIcNS_11char_traitsIcEENS_9allocatorIcEEEEiNS_4lessIS6_EENS4_INS_4pairIKS6_iEEEEE3endB8ue170006Ev, symObjAddr: 0xA344, symBinAddr: 0x10000A970, symSize: 0x38 }
  - { offsetInCU: 0x24048, offset: 0x24048, size: 0x8, addend: 0x0, symName: __ZNKSt3__114__map_iteratorINS_15__tree_iteratorINS_12__value_typeINS_12basic_stringIcNS_11char_traitsIcEENS_9allocatorIcEEEEiEEPNS_11__tree_nodeIS9_PvEElEEEptB8ue170006Ev, symObjAddr: 0xA37C, symBinAddr: 0x10000A9A8, symSize: 0x2C }
  - { offsetInCU: 0x2406E, offset: 0x2406E, size: 0x8, addend: 0x0, symName: __ZN6parser10comparisonEP5parse, symObjAddr: 0xA3A8, symBinAddr: 0x10000A9D4, symSize: 0x5C8 }
  - { offsetInCU: 0x2412F, offset: 0x2412F, size: 0x8, addend: 0x0, symName: __ZNSt3__13mapINS_12basic_stringIcNS_11char_traitsIcEENS_9allocatorIcEEEEP6parserNS_4lessIS6_EENS4_INS_4pairIKS6_S8_EEEEEaSB8ue170006ERKSF_, symObjAddr: 0xA970, symBinAddr: 0x10000AF9C, symSize: 0x94 }
  - { offsetInCU: 0x24164, offset: 0x24164, size: 0x8, addend: 0x0, symName: __ZNSt3__13mapINS_12basic_stringIcNS_11char_traitsIcEENS_9allocatorIcEEEEiNS_4lessIS6_EENS4_INS_4pairIKS6_iEEEEEaSB8ue170006ERKSD_, symObjAddr: 0xAA04, symBinAddr: 0x10000B030, symSize: 0x94 }
  - { offsetInCU: 0x24199, offset: 0x24199, size: 0x8, addend: 0x0, symName: __ZNSt3__16vectorINS_12basic_stringIcNS_11char_traitsIcEENS_9allocatorIcEEEENS4_IS6_EEE9push_backB8ue170006ERKS6_, symObjAddr: 0xAA98, symBinAddr: 0x10000B0C4, symSize: 0x6C }
  - { offsetInCU: 0x241D0, offset: 0x241D0, size: 0x8, addend: 0x0, symName: __ZNSt3__16__treeINS_12__value_typeINS_12basic_stringIcNS_11char_traitsIcEENS_9allocatorIcEEEEP6parserEENS_19__map_value_compareIS7_SA_NS_4lessIS7_EELb1EEENS5_ISA_EEE12__find_equalIS7_EERPNS_16__tree_node_baseIPvEERPNS_15__tree_end_nodeISL_EERKT_, symObjAddr: 0xAB04, symBinAddr: 0x10000B130, symSize: 0x184 }
  - { offsetInCU: 0x2423D, offset: 0x2423D, size: 0x8, addend: 0x0, symName: __ZNSt3__13mapINS_12basic_stringIcNS_11char_traitsIcEENS_9allocatorIcEEEEP6parserNS_4lessIS6_EENS4_INS_4pairIKS6_S8_EEEEE25__construct_node_with_keyERSC_, symObjAddr: 0xAC88, symBinAddr: 0x10000B2B4, symSize: 0x144 }
  - { offsetInCU: 0x24293, offset: 0x24293, size: 0x8, addend: 0x0, symName: __ZNSt3__16__treeINS_12__value_typeINS_12basic_stringIcNS_11char_traitsIcEENS_9allocatorIcEEEEP6parserEENS_19__map_value_compareIS7_SA_NS_4lessIS7_EELb1EEENS5_ISA_EEE16__insert_node_atEPNS_15__tree_end_nodeIPNS_16__tree_node_baseIPvEEEERSL_SL_, symObjAddr: 0xADCC, symBinAddr: 0x10000B3F8, symSize: 0xCC }
  - { offsetInCU: 0x242E8, offset: 0x242E8, size: 0x8, addend: 0x0, symName: __ZNKSt3__110unique_ptrINS_11__tree_nodeINS_12__value_typeINS_12basic_stringIcNS_11char_traitsIcEENS_9allocatorIcEEEEP6parserEEPvEENS_21__map_node_destructorINS6_ISD_EEEEE3getB8ue170006Ev, symObjAddr: 0xAE98, symBinAddr: 0x10000B4C4, symSize: 0x28 }
  - { offsetInCU: 0x2430E, offset: 0x2430E, size: 0x8, addend: 0x0, symName: __ZNSt3__110unique_ptrINS_11__tree_nodeINS_12__value_typeINS_12basic_stringIcNS_11char_traitsIcEENS_9allocatorIcEEEEP6parserEEPvEENS_21__map_node_destructorINS6_ISD_EEEEE7releaseB8ue170006Ev, symObjAddr: 0xAEC0, symBinAddr: 0x10000B4EC, symSize: 0x44 }
  - { offsetInCU: 0x24343, offset: 0x24343, size: 0x8, addend: 0x0, symName: __ZNSt3__110unique_ptrINS_11__tree_nodeINS_12__value_typeINS_12basic_stringIcNS_11char_traitsIcEENS_9allocatorIcEEEEP6parserEEPvEENS_21__map_node_destructorINS6_ISD_EEEEED1B8ue170006Ev, symObjAddr: 0xAF04, symBinAddr: 0x10000B530, symSize: 0x2C }
  - { offsetInCU: 0x2436D, offset: 0x2436D, size: 0x8, addend: 0x0, symName: __ZNKSt3__16__treeINS_12__value_typeINS_12basic_stringIcNS_11char_traitsIcEENS_9allocatorIcEEEEP6parserEENS_19__map_value_compareIS7_SA_NS_4lessIS7_EELb1EEENS5_ISA_EEE10__root_ptrB8ue170006Ev, symObjAddr: 0xAF30, symBinAddr: 0x10000B55C, symSize: 0x24 }
  - { offsetInCU: 0x24393, offset: 0x24393, size: 0x8, addend: 0x0, symName: __ZNSt3__16__treeINS_12__value_typeINS_12basic_stringIcNS_11char_traitsIcEENS_9allocatorIcEEEEP6parserEENS_19__map_value_compareIS7_SA_NS_4lessIS7_EELb1EEENS5_ISA_EEE10value_compB8ue170006Ev, symObjAddr: 0xAF54, symBinAddr: 0x10000B580, symSize: 0x28 }
  - { offsetInCU: 0x243B9, offset: 0x243B9, size: 0x8, addend: 0x0, symName: __ZNKSt3__119__map_value_compareINS_12basic_stringIcNS_11char_traitsIcEENS_9allocatorIcEEEENS_12__value_typeIS6_P6parserEENS_4lessIS6_EELb1EEclB8ue170006ERKS6_RKSA_, symObjAddr: 0xAF7C, symBinAddr: 0x10000B5A8, symSize: 0x50 }
  - { offsetInCU: 0x243FD, offset: 0x243FD, size: 0x8, addend: 0x0, symName: __ZNKSt3__119__map_value_compareINS_12basic_stringIcNS_11char_traitsIcEENS_9allocatorIcEEEENS_12__value_typeIS6_P6parserEENS_4lessIS6_EELb1EEclB8ue170006ERKSA_RKS6_, symObjAddr: 0xAFCC, symBinAddr: 0x10000B5F8, symSize: 0x48 }
  - { offsetInCU: 0x24441, offset: 0x24441, size: 0x8, addend: 0x0, symName: __ZNSt3__117__compressed_pairImNS_19__map_value_compareINS_12basic_stringIcNS_11char_traitsIcEENS_9allocatorIcEEEENS_12__value_typeIS7_P6parserEENS_4lessIS7_EELb1EEEE6secondB8ue170006Ev, symObjAddr: 0xB014, symBinAddr: 0x10000B640, symSize: 0x24 }
  - { offsetInCU: 0x24467, offset: 0x24467, size: 0x8, addend: 0x0, symName: __ZNSt3__122__compressed_pair_elemINS_19__map_value_compareINS_12basic_stringIcNS_11char_traitsIcEENS_9allocatorIcEEEENS_12__value_typeIS7_P6parserEENS_4lessIS7_EELb1EEELi1ELb1EE5__getB8ue170006Ev, symObjAddr: 0xB038, symBinAddr: 0x10000B664, symSize: 0x14 }
  - { offsetInCU: 0x2448D, offset: 0x2448D, size: 0x8, addend: 0x0, symName: __ZNKSt3__14lessINS_12basic_stringIcNS_11char_traitsIcEENS_9allocatorIcEEEEEclB8ue170006ERKS6_S9_, symObjAddr: 0xB04C, symBinAddr: 0x10000B678, symSize: 0x34 }
  - { offsetInCU: 0x244D1, offset: 0x244D1, size: 0x8, addend: 0x0, symName: __ZNKSt3__112__value_typeINS_12basic_stringIcNS_11char_traitsIcEENS_9allocatorIcEEEEP6parserE11__get_valueB8ue170006Ev, symObjAddr: 0xB080, symBinAddr: 0x10000B6AC, symSize: 0x14 }
  - { offsetInCU: 0x244F7, offset: 0x244F7, size: 0x8, addend: 0x0, symName: __ZNKSt3__112basic_stringIcNS_11char_traitsIcEENS_9allocatorIcEEE7compareB8ue170006ERKS5_, symObjAddr: 0xB0CC, symBinAddr: 0x10000B6F8, symSize: 0x4C }
  - { offsetInCU: 0x2452E, offset: 0x2452E, size: 0x8, addend: 0x0, symName: __ZNKSt3__112basic_stringIcNS_11char_traitsIcEENS_9allocatorIcEEE7compareINS_17basic_string_viewIcS2_EELi0EEEiRKT_, symObjAddr: 0xB118, symBinAddr: 0x10000B744, symSize: 0x140 }
  - { offsetInCU: 0x245B1, offset: 0x245B1, size: 0x8, addend: 0x0, symName: __ZNKSt3__112basic_stringIcNS_11char_traitsIcEENS_9allocatorIcEEEcvNS_17basic_string_viewIcS2_EEB8ue170006Ev, symObjAddr: 0xB258, symBinAddr: 0x10000B884, symSize: 0x50 }
  - { offsetInCU: 0x245D7, offset: 0x245D7, size: 0x8, addend: 0x0, symName: __ZNKSt3__112basic_stringIcNS_11char_traitsIcEENS_9allocatorIcEEE4sizeB8ue170006Ev, symObjAddr: 0xB2A8, symBinAddr: 0x10000B8D4, symSize: 0x54 }
  - { offsetInCU: 0x245FD, offset: 0x245FD, size: 0x8, addend: 0x0, symName: __ZNKSt3__117basic_string_viewIcNS_11char_traitsIcEEE4sizeB8ue170006Ev, symObjAddr: 0xB2FC, symBinAddr: 0x10000B928, symSize: 0x18 }
  - { offsetInCU: 0x24623, offset: 0x24623, size: 0x8, addend: 0x0, symName: __ZNSt3__111char_traitsIcE7compareB8ue170006EPKcS3_m, symObjAddr: 0xB314, symBinAddr: 0x10000B940, symSize: 0x64 }
  - { offsetInCU: 0x24662, offset: 0x24662, size: 0x8, addend: 0x0, symName: __ZNKSt3__112basic_stringIcNS_11char_traitsIcEENS_9allocatorIcEEE4dataB8ue170006Ev, symObjAddr: 0xB378, symBinAddr: 0x10000B9A4, symSize: 0x28 }
  - { offsetInCU: 0x24688, offset: 0x24688, size: 0x8, addend: 0x0, symName: __ZNKSt3__117basic_string_viewIcNS_11char_traitsIcEEE4dataB8ue170006Ev, symObjAddr: 0xB3A0, symBinAddr: 0x10000B9CC, symSize: 0x18 }
  - { offsetInCU: 0x246AE, offset: 0x246AE, size: 0x8, addend: 0x0, symName: __ZNKSt3__112basic_stringIcNS_11char_traitsIcEENS_9allocatorIcEEE9__is_longB8ue170006Ev, symObjAddr: 0xB3B8, symBinAddr: 0x10000B9E4, symSize: 0x74 }
  - { offsetInCU: 0x246D4, offset: 0x246D4, size: 0x8, addend: 0x0, symName: __ZNKSt3__112basic_stringIcNS_11char_traitsIcEENS_9allocatorIcEEE15__get_long_sizeB8ue170006Ev, symObjAddr: 0xB42C, symBinAddr: 0x10000BA58, symSize: 0x28 }
  - { offsetInCU: 0x246FA, offset: 0x246FA, size: 0x8, addend: 0x0, symName: __ZNKSt3__112basic_stringIcNS_11char_traitsIcEENS_9allocatorIcEEE16__get_short_sizeB8ue170006Ev, symObjAddr: 0xB454, symBinAddr: 0x10000BA80, symSize: 0x34 }
  - { offsetInCU: 0x24720, offset: 0x24720, size: 0x8, addend: 0x0, symName: __ZNKSt3__117__compressed_pairINS_12basic_stringIcNS_11char_traitsIcEENS_9allocatorIcEEE5__repES5_E5firstB8ue170006Ev, symObjAddr: 0xB488, symBinAddr: 0x10000BAB4, symSize: 0x24 }
  - { offsetInCU: 0x24746, offset: 0x24746, size: 0x8, addend: 0x0, symName: __ZNKSt3__122__compressed_pair_elemINS_12basic_stringIcNS_11char_traitsIcEENS_9allocatorIcEEE5__repELi0ELb0EE5__getB8ue170006Ev, symObjAddr: 0xB4AC, symBinAddr: 0x10000BAD8, symSize: 0x14 }
  - { offsetInCU: 0x2476C, offset: 0x2476C, size: 0x8, addend: 0x0, symName: __ZNKSt3__112basic_stringIcNS_11char_traitsIcEENS_9allocatorIcEEE13__get_pointerB8ue170006Ev, symObjAddr: 0xB4D4, symBinAddr: 0x10000BB00, symSize: 0x54 }
  - { offsetInCU: 0x24792, offset: 0x24792, size: 0x8, addend: 0x0, symName: __ZNKSt3__112basic_stringIcNS_11char_traitsIcEENS_9allocatorIcEEE18__get_long_pointerB8ue170006Ev, symObjAddr: 0xB528, symBinAddr: 0x10000BB54, symSize: 0x28 }
  - { offsetInCU: 0x247B8, offset: 0x247B8, size: 0x8, addend: 0x0, symName: __ZNKSt3__112basic_stringIcNS_11char_traitsIcEENS_9allocatorIcEEE19__get_short_pointerB8ue170006Ev, symObjAddr: 0xB550, symBinAddr: 0x10000BB7C, symSize: 0x28 }
  - { offsetInCU: 0x247DE, offset: 0x247DE, size: 0x8, addend: 0x0, symName: __ZNSt3__114pointer_traitsIPKcE10pointer_toB8ue170006ERS1_, symObjAddr: 0xB578, symBinAddr: 0x10000BBA4, symSize: 0x14 }
  - { offsetInCU: 0x24801, offset: 0x24801, size: 0x8, addend: 0x0, symName: __ZNSt3__117basic_string_viewIcNS_11char_traitsIcEEEC1B8ue170006EPKcm, symObjAddr: 0xB58C, symBinAddr: 0x10000BBB8, symSize: 0x3C }
  - { offsetInCU: 0x24849, offset: 0x24849, size: 0x8, addend: 0x0, symName: __ZNSt3__117basic_string_viewIcNS_11char_traitsIcEEEC2B8ue170006EPKcm, symObjAddr: 0xB5C8, symBinAddr: 0x10000BBF4, symSize: 0x2C }
  - { offsetInCU: 0x24891, offset: 0x24891, size: 0x8, addend: 0x0, symName: __ZNSt3__116allocator_traitsINS_9allocatorINS_11__tree_nodeINS_12__value_typeINS_12basic_stringIcNS_11char_traitsIcEENS1_IcEEEEP6parserEEPvEEEEE8allocateB8ue170006ERSE_m, symObjAddr: 0xB5F4, symBinAddr: 0x10000BC20, symSize: 0x2C }
  - { offsetInCU: 0x248C4, offset: 0x248C4, size: 0x8, addend: 0x0, symName: __ZNSt3__121__map_node_destructorINS_9allocatorINS_11__tree_nodeINS_12__value_typeINS_12basic_stringIcNS_11char_traitsIcEENS1_IcEEEEP6parserEEPvEEEEEC1B8ue170006ERSE_, symObjAddr: 0xB620, symBinAddr: 0x10000BC4C, symSize: 0x34 }
  - { offsetInCU: 0x24903, offset: 0x24903, size: 0x8, addend: 0x0, symName: __ZNSt3__110unique_ptrINS_11__tree_nodeINS_12__value_typeINS_12basic_stringIcNS_11char_traitsIcEENS_9allocatorIcEEEEP6parserEEPvEENS_21__map_node_destructorINS6_ISD_EEEEEC1B8ue170006ILb1EvEEPSD_NS_16__dependent_typeINS_27__unique_ptr_deleter_sfinaeISG_EEXT_EE20__good_rval_ref_typeE, symObjAddr: 0xB654, symBinAddr: 0x10000BC80, symSize: 0x3C }
  - { offsetInCU: 0x24954, offset: 0x24954, size: 0x8, addend: 0x0, symName: __ZNSt3__116allocator_traitsINS_9allocatorINS_11__tree_nodeINS_12__value_typeINS_12basic_stringIcNS_11char_traitsIcEENS1_IcEEEEP6parserEEPvEEEEE9constructB8ue170006IKS8_JRSH_EvEEvRSE_PT_DpOT0_, symObjAddr: 0xB690, symBinAddr: 0x10000BCBC, symSize: 0x34 }
  - { offsetInCU: 0x249AB, offset: 0x249AB, size: 0x8, addend: 0x0, symName: __ZNKSt3__110unique_ptrINS_11__tree_nodeINS_12__value_typeINS_12basic_stringIcNS_11char_traitsIcEENS_9allocatorIcEEEEP6parserEEPvEENS_21__map_node_destructorINS6_ISD_EEEEEptB8ue170006Ev, symObjAddr: 0xB6C4, symBinAddr: 0x10000BCF0, symSize: 0x28 }
  - { offsetInCU: 0x249D1, offset: 0x249D1, size: 0x8, addend: 0x0, symName: __ZNSt3__110unique_ptrINS_11__tree_nodeINS_12__value_typeINS_12basic_stringIcNS_11char_traitsIcEENS_9allocatorIcEEEEP6parserEEPvEENS_21__map_node_destructorINS6_ISD_EEEEE11get_deleterB8ue170006Ev, symObjAddr: 0xB6EC, symBinAddr: 0x10000BD18, symSize: 0x24 }
  - { offsetInCU: 0x249FD, offset: 0x249FD, size: 0x8, addend: 0x0, symName: __ZNSt3__116allocator_traitsINS_9allocatorINS_11__tree_nodeINS_12__value_typeINS_12basic_stringIcNS_11char_traitsIcEENS1_IcEEEEP6parserEEPvEEEEE9constructB8ue170006ISA_JEvEEvRSE_PT_DpOT0_, symObjAddr: 0xB710, symBinAddr: 0x10000BD3C, symSize: 0x2C }
  - { offsetInCU: 0x24A3F, offset: 0x24A3F, size: 0x8, addend: 0x0, symName: __ZNSt3__19allocatorINS_11__tree_nodeINS_12__value_typeINS_12basic_stringIcNS_11char_traitsIcEENS0_IcEEEEP6parserEEPvEEE8allocateB8ue170006Em, symObjAddr: 0xB73C, symBinAddr: 0x10000BD68, symSize: 0x84 }
  - { offsetInCU: 0x24A7E, offset: 0x24A7E, size: 0x8, addend: 0x0, symName: __ZNSt3__116allocator_traitsINS_9allocatorINS_11__tree_nodeINS_12__value_typeINS_12basic_stringIcNS_11char_traitsIcEENS1_IcEEEEP6parserEEPvEEEEE8max_sizeB8ue170006ISE_vEEmRKSE_, symObjAddr: 0xB7C0, symBinAddr: 0x10000BDEC, symSize: 0x24 }
  - { offsetInCU: 0x24AAC, offset: 0x24AAC, size: 0x8, addend: 0x0, symName: __ZNKSt3__19allocatorINS_11__tree_nodeINS_12__value_typeINS_12basic_stringIcNS_11char_traitsIcEENS0_IcEEEEP6parserEEPvEEE8max_sizeB8ue170006Ev, symObjAddr: 0xB7E4, symBinAddr: 0x10000BE10, symSize: 0x14 }
  - { offsetInCU: 0x24AD2, offset: 0x24AD2, size: 0x8, addend: 0x0, symName: __ZNSt3__121__map_node_destructorINS_9allocatorINS_11__tree_nodeINS_12__value_typeINS_12basic_stringIcNS_11char_traitsIcEENS1_IcEEEEP6parserEEPvEEEEEC2B8ue170006ERSE_, symObjAddr: 0xB7F8, symBinAddr: 0x10000BE24, symSize: 0x28 }
  - { offsetInCU: 0x24B0B, offset: 0x24B0B, size: 0x8, addend: 0x0, symName: __ZNSt3__110unique_ptrINS_11__tree_nodeINS_12__value_typeINS_12basic_stringIcNS_11char_traitsIcEENS_9allocatorIcEEEEP6parserEEPvEENS_21__map_node_destructorINS6_ISD_EEEEEC2B8ue170006ILb1EvEEPSD_NS_16__dependent_typeINS_27__unique_ptr_deleter_sfinaeISG_EEXT_EE20__good_rval_ref_typeE, symObjAddr: 0xB820, symBinAddr: 0x10000BE4C, symSize: 0x5C }
  - { offsetInCU: 0x24B5C, offset: 0x24B5C, size: 0x8, addend: 0x0, symName: __ZNSt3__117__compressed_pairIPNS_11__tree_nodeINS_12__value_typeINS_12basic_stringIcNS_11char_traitsIcEENS_9allocatorIcEEEEP6parserEEPvEENS_21__map_node_destructorINS6_ISD_EEEEEC1B8ue170006IRSE_SH_EEOT_OT0_, symObjAddr: 0xB87C, symBinAddr: 0x10000BEA8, symSize: 0x3C }
  - { offsetInCU: 0x24BB4, offset: 0x24BB4, size: 0x8, addend: 0x0, symName: __ZNSt3__117__compressed_pairIPNS_11__tree_nodeINS_12__value_typeINS_12basic_stringIcNS_11char_traitsIcEENS_9allocatorIcEEEEP6parserEEPvEENS_21__map_node_destructorINS6_ISD_EEEEEC2B8ue170006IRSE_SH_EEOT_OT0_, symObjAddr: 0xB8B8, symBinAddr: 0x10000BEE4, symSize: 0x48 }
  - { offsetInCU: 0x24C0C, offset: 0x24C0C, size: 0x8, addend: 0x0, symName: __ZNSt3__122__compressed_pair_elemIPNS_11__tree_nodeINS_12__value_typeINS_12basic_stringIcNS_11char_traitsIcEENS_9allocatorIcEEEEP6parserEEPvEELi0ELb0EEC2B8ue170006IRSE_vEEOT_, symObjAddr: 0xB900, symBinAddr: 0x10000BF2C, symSize: 0x24 }
  - { offsetInCU: 0x24C4E, offset: 0x24C4E, size: 0x8, addend: 0x0, symName: __ZNSt3__122__compressed_pair_elemINS_21__map_node_destructorINS_9allocatorINS_11__tree_nodeINS_12__value_typeINS_12basic_stringIcNS_11char_traitsIcEENS2_IcEEEEP6parserEEPvEEEEEELi1ELb0EEC2B8ue170006ISG_vEEOT_, symObjAddr: 0xB924, symBinAddr: 0x10000BF50, symSize: 0x24 }
  - { offsetInCU: 0x24C90, offset: 0x24C90, size: 0x8, addend: 0x0, symName: __ZNSt3__19allocatorINS_11__tree_nodeINS_12__value_typeINS_12basic_stringIcNS_11char_traitsIcEENS0_IcEEEEP6parserEEPvEEE9constructB8ue170006IKS7_JRSF_EEEvPT_DpOT0_, symObjAddr: 0xB948, symBinAddr: 0x10000BF74, symSize: 0x30 }
  - { offsetInCU: 0x24CE6, offset: 0x24CE6, size: 0x8, addend: 0x0, symName: __ZNKSt3__117__compressed_pairIPNS_11__tree_nodeINS_12__value_typeINS_12basic_stringIcNS_11char_traitsIcEENS_9allocatorIcEEEEP6parserEEPvEENS_21__map_node_destructorINS6_ISD_EEEEE5firstB8ue170006Ev, symObjAddr: 0xB978, symBinAddr: 0x10000BFA4, symSize: 0x24 }
  - { offsetInCU: 0x24D0C, offset: 0x24D0C, size: 0x8, addend: 0x0, symName: __ZNKSt3__122__compressed_pair_elemIPNS_11__tree_nodeINS_12__value_typeINS_12basic_stringIcNS_11char_traitsIcEENS_9allocatorIcEEEEP6parserEEPvEELi0ELb0EE5__getB8ue170006Ev, symObjAddr: 0xB99C, symBinAddr: 0x10000BFC8, symSize: 0x14 }
  - { offsetInCU: 0x24D32, offset: 0x24D32, size: 0x8, addend: 0x0, symName: __ZNSt3__117__compressed_pairIPNS_11__tree_nodeINS_12__value_typeINS_12basic_stringIcNS_11char_traitsIcEENS_9allocatorIcEEEEP6parserEEPvEENS_21__map_node_destructorINS6_ISD_EEEEE6secondB8ue170006Ev, symObjAddr: 0xB9B0, symBinAddr: 0x10000BFDC, symSize: 0x28 }
  - { offsetInCU: 0x24D58, offset: 0x24D58, size: 0x8, addend: 0x0, symName: __ZNSt3__122__compressed_pair_elemINS_21__map_node_destructorINS_9allocatorINS_11__tree_nodeINS_12__value_typeINS_12basic_stringIcNS_11char_traitsIcEENS2_IcEEEEP6parserEEPvEEEEEELi1ELb0EE5__getB8ue170006Ev, symObjAddr: 0xB9D8, symBinAddr: 0x10000C004, symSize: 0x14 }
  - { offsetInCU: 0x24D7E, offset: 0x24D7E, size: 0x8, addend: 0x0, symName: __ZNSt3__19allocatorINS_11__tree_nodeINS_12__value_typeINS_12basic_stringIcNS_11char_traitsIcEENS0_IcEEEEP6parserEEPvEEE9constructB8ue170006IS9_JEEEvPT_DpOT0_, symObjAddr: 0xB9EC, symBinAddr: 0x10000C018, symSize: 0x1C }
  - { offsetInCU: 0x24DC0, offset: 0x24DC0, size: 0x8, addend: 0x0, symName: __ZNSt3__16__treeINS_12__value_typeINS_12basic_stringIcNS_11char_traitsIcEENS_9allocatorIcEEEEP6parserEENS_19__map_value_compareIS7_SA_NS_4lessIS7_EELb1EEENS5_ISA_EEE4sizeB8ue170006Ev, symObjAddr: 0xBD48, symBinAddr: 0x10000C374, symSize: 0x28 }
  - { offsetInCU: 0x24DE6, offset: 0x24DE6, size: 0x8, addend: 0x0, symName: __ZNKSt3__116__tree_node_baseIPvE15__parent_unsafeB8ue170006Ev, symObjAddr: 0xBD70, symBinAddr: 0x10000C39C, symSize: 0x18 }
  - { offsetInCU: 0x24E0C, offset: 0x24E0C, size: 0x8, addend: 0x0, symName: __ZNSt3__116__tree_node_baseIPvE12__set_parentB8ue170006EPS2_, symObjAddr: 0xBF6C, symBinAddr: 0x10000C598, symSize: 0x20 }
  - { offsetInCU: 0x24E41, offset: 0x24E41, size: 0x8, addend: 0x0, symName: __ZNSt3__117__compressed_pairImNS_19__map_value_compareINS_12basic_stringIcNS_11char_traitsIcEENS_9allocatorIcEEEENS_12__value_typeIS7_P6parserEENS_4lessIS7_EELb1EEEE5firstB8ue170006Ev, symObjAddr: 0xBF8C, symBinAddr: 0x10000C5B8, symSize: 0x24 }
  - { offsetInCU: 0x24E67, offset: 0x24E67, size: 0x8, addend: 0x0, symName: __ZNSt3__122__compressed_pair_elemImLi0ELb0EE5__getB8ue170006Ev, symObjAddr: 0xBFB0, symBinAddr: 0x10000C5DC, symSize: 0x14 }
  - { offsetInCU: 0x24E8D, offset: 0x24E8D, size: 0x8, addend: 0x0, symName: __ZNSt3__117__compressed_pairIPNS_11__tree_nodeINS_12__value_typeINS_12basic_stringIcNS_11char_traitsIcEENS_9allocatorIcEEEEP6parserEEPvEENS_21__map_node_destructorINS6_ISD_EEEEE5firstB8ue170006Ev, symObjAddr: 0xBFC4, symBinAddr: 0x10000C5F0, symSize: 0x24 }
  - { offsetInCU: 0x24EB3, offset: 0x24EB3, size: 0x8, addend: 0x0, symName: __ZNSt3__122__compressed_pair_elemIPNS_11__tree_nodeINS_12__value_typeINS_12basic_stringIcNS_11char_traitsIcEENS_9allocatorIcEEEEP6parserEEPvEELi0ELb0EE5__getB8ue170006Ev, symObjAddr: 0xBFE8, symBinAddr: 0x10000C614, symSize: 0x14 }
  - { offsetInCU: 0x24ED9, offset: 0x24ED9, size: 0x8, addend: 0x0, symName: __ZNSt3__110unique_ptrINS_11__tree_nodeINS_12__value_typeINS_12basic_stringIcNS_11char_traitsIcEENS_9allocatorIcEEEEP6parserEEPvEENS_21__map_node_destructorINS6_ISD_EEEEED2B8ue170006Ev, symObjAddr: 0xBFFC, symBinAddr: 0x10000C628, symSize: 0x30 }
  - { offsetInCU: 0x24F03, offset: 0x24F03, size: 0x8, addend: 0x0, symName: __ZNSt3__110unique_ptrINS_11__tree_nodeINS_12__value_typeINS_12basic_stringIcNS_11char_traitsIcEENS_9allocatorIcEEEEP6parserEEPvEENS_21__map_node_destructorINS6_ISD_EEEEE5resetB8ue170006EPSD_, symObjAddr: 0xC02C, symBinAddr: 0x10000C658, symSize: 0x78 }
  - { offsetInCU: 0x24F47, offset: 0x24F47, size: 0x8, addend: 0x0, symName: __ZNSt3__121__map_node_destructorINS_9allocatorINS_11__tree_nodeINS_12__value_typeINS_12basic_stringIcNS_11char_traitsIcEENS1_IcEEEEP6parserEEPvEEEEEclB8ue170006EPSD_, symObjAddr: 0xC0A4, symBinAddr: 0x10000C6D0, symSize: 0xE4 }
  - { offsetInCU: 0x24F7C, offset: 0x24F7C, size: 0x8, addend: 0x0, symName: __ZNSt3__116allocator_traitsINS_9allocatorINS_11__tree_nodeINS_12__value_typeINS_12basic_stringIcNS_11char_traitsIcEENS1_IcEEEEP6parserEEPvEEEEE7destroyB8ue170006ISA_vvEEvRSE_PT_, symObjAddr: 0xC188, symBinAddr: 0x10000C7B4, symSize: 0x14 }
  - { offsetInCU: 0x24FB6, offset: 0x24FB6, size: 0x8, addend: 0x0, symName: __ZNSt3__116allocator_traitsINS_9allocatorINS_11__tree_nodeINS_12__value_typeINS_12basic_stringIcNS_11char_traitsIcEENS1_IcEEEEP6parserEEPvEEEEE7destroyB8ue170006IKS8_vvEEvRSE_PT_, symObjAddr: 0xC19C, symBinAddr: 0x10000C7C8, symSize: 0x28 }
  - { offsetInCU: 0x25023, offset: 0x25023, size: 0x8, addend: 0x0, symName: __ZNSt3__15stackINS_12basic_stringIcNS_11char_traitsIcEENS_9allocatorIcEEEENS_5dequeIS6_NS4_IS6_EEEEEC1B8ue170006Ev, symObjAddr: 0xC1C4, symBinAddr: 0x10000C7F0, symSize: 0x2C }
  - { offsetInCU: 0x2504D, offset: 0x2504D, size: 0x8, addend: 0x0, symName: __ZNSt3__112basic_stringIcNS_11char_traitsIcEENS_9allocatorIcEEEpLB8ue170006ERKS5_, symObjAddr: 0xC30C, symBinAddr: 0x10000C938, symSize: 0x2C }
  - { offsetInCU: 0x25082, offset: 0x25082, size: 0x8, addend: 0x0, symName: __ZNKSt3__15stackINS_12basic_stringIcNS_11char_traitsIcEENS_9allocatorIcEEEENS_5dequeIS6_NS4_IS6_EEEEE5emptyB8ue170006Ev, symObjAddr: 0xC338, symBinAddr: 0x10000C964, symSize: 0x28 }
  - { offsetInCU: 0x250A8, offset: 0x250A8, size: 0x8, addend: 0x0, symName: __ZN6parser4precENSt3__112basic_stringIcNS0_11char_traitsIcEENS0_9allocatorIcEEEE, symObjAddr: 0xC360, symBinAddr: 0x10000C98C, symSize: 0xB4 }
  - { offsetInCU: 0x250DE, offset: 0x250DE, size: 0x8, addend: 0x0, symName: __ZNSt3__15stackINS_12basic_stringIcNS_11char_traitsIcEENS_9allocatorIcEEEENS_5dequeIS6_NS4_IS6_EEEEE3topB8ue170006Ev, symObjAddr: 0xC414, symBinAddr: 0x10000CA40, symSize: 0x24 }
  - { offsetInCU: 0x25104, offset: 0x25104, size: 0x8, addend: 0x0, symName: __ZNSt3__15stackINS_12basic_stringIcNS_11char_traitsIcEENS_9allocatorIcEEEENS_5dequeIS6_NS4_IS6_EEEEE3popB8ue170006Ev, symObjAddr: 0xC438, symBinAddr: 0x10000CA64, symSize: 0x24 }
  - { offsetInCU: 0x2512A, offset: 0x2512A, size: 0x8, addend: 0x0, symName: __ZNSt3__15stackINS_12basic_stringIcNS_11char_traitsIcEENS_9allocatorIcEEEENS_5dequeIS6_NS4_IS6_EEEEE4pushB8ue170006ERKS6_, symObjAddr: 0xC45C, symBinAddr: 0x10000CA88, symSize: 0x2C }
  - { offsetInCU: 0x25192, offset: 0x25192, size: 0x8, addend: 0x0, symName: __ZNSt3__15stackIiNS_5dequeIiNS_9allocatorIiEEEEEC1B8ue170006Ev, symObjAddr: 0xC488, symBinAddr: 0x10000CAB4, symSize: 0x2C }
  - { offsetInCU: 0x25218, offset: 0x25218, size: 0x8, addend: 0x0, symName: __ZNSt3__119basic_istringstreamIcNS_11char_traitsIcEENS_9allocatorIcEEEC1B8ue170006ERKNS_12basic_stringIcS2_S4_EEj, symObjAddr: 0xC4B4, symBinAddr: 0x10000CAE0, symSize: 0x108 }
  - { offsetInCU: 0x25260, offset: 0x25260, size: 0x8, addend: 0x0, symName: __ZNSt3__15stackIiNS_5dequeIiNS_9allocatorIiEEEEE4pushB8ue170006ERKi, symObjAddr: 0xC8E0, symBinAddr: 0x10000CF0C, symSize: 0x2C }
  - { offsetInCU: 0x25295, offset: 0x25295, size: 0x8, addend: 0x0, symName: __ZNSt3__15stackIiNS_5dequeIiNS_9allocatorIiEEEEE3topB8ue170006Ev, symObjAddr: 0xC90C, symBinAddr: 0x10000CF38, symSize: 0x24 }
  - { offsetInCU: 0x252BB, offset: 0x252BB, size: 0x8, addend: 0x0, symName: __ZNSt3__15stackIiNS_5dequeIiNS_9allocatorIiEEEEE3popB8ue170006Ev, symObjAddr: 0xC930, symBinAddr: 0x10000CF5C, symSize: 0x24 }
  - { offsetInCU: 0x252E7, offset: 0x252E7, size: 0x8, addend: 0x0, symName: __ZNSt3__119basic_istringstreamIcNS_11char_traitsIcEENS_9allocatorIcEEED1Ev, symObjAddr: 0xC954, symBinAddr: 0x10000CF80, symSize: 0x70 }
  - { offsetInCU: 0x25314, offset: 0x25314, size: 0x8, addend: 0x0, symName: __ZNSt3__15stackIiNS_5dequeIiNS_9allocatorIiEEEEED1Ev, symObjAddr: 0xC9C4, symBinAddr: 0x10000CFF0, symSize: 0x2C }
  - { offsetInCU: 0x25340, offset: 0x25340, size: 0x8, addend: 0x0, symName: __ZNSt3__15stackINS_12basic_stringIcNS_11char_traitsIcEENS_9allocatorIcEEEENS_5dequeIS6_NS4_IS6_EEEEED1Ev, symObjAddr: 0xC9F0, symBinAddr: 0x10000D01C, symSize: 0x2C }
  - { offsetInCU: 0x2536C, offset: 0x2536C, size: 0x8, addend: 0x0, symName: __ZNSt3__15stackINS_12basic_stringIcNS_11char_traitsIcEENS_9allocatorIcEEEENS_5dequeIS6_NS4_IS6_EEEEEC2B8ue170006Ev, symObjAddr: 0xCA1C, symBinAddr: 0x10000D048, symSize: 0x2C }
  - { offsetInCU: 0x25396, offset: 0x25396, size: 0x8, addend: 0x0, symName: __ZNSt3__15dequeINS_12basic_stringIcNS_11char_traitsIcEENS_9allocatorIcEEEENS4_IS6_EEEC1B8ue170006Ev, symObjAddr: 0xCA48, symBinAddr: 0x10000D074, symSize: 0x2C }
  - { offsetInCU: 0x253C0, offset: 0x253C0, size: 0x8, addend: 0x0, symName: __ZNSt3__15dequeINS_12basic_stringIcNS_11char_traitsIcEENS_9allocatorIcEEEENS4_IS6_EEEC2B8ue170006Ev, symObjAddr: 0xCA74, symBinAddr: 0x10000D0A0, symSize: 0x84 }
  - { offsetInCU: 0x253EA, offset: 0x253EA, size: 0x8, addend: 0x0, symName: __ZNSt3__114__split_bufferIPNS_12basic_stringIcNS_11char_traitsIcEENS_9allocatorIcEEEENS4_IS7_EEEC1B8ue170006Ev, symObjAddr: 0xCAF8, symBinAddr: 0x10000D124, symSize: 0x2C }
  - { offsetInCU: 0x25414, offset: 0x25414, size: 0x8, addend: 0x0, symName: __ZNSt3__117__compressed_pairImNS_9allocatorINS_12basic_stringIcNS_11char_traitsIcEENS1_IcEEEEEEEC1B8ue170006IiNS_18__default_init_tagEEEOT_OT0_, symObjAddr: 0xCB24, symBinAddr: 0x10000D150, symSize: 0x3C }
  - { offsetInCU: 0x2546C, offset: 0x2546C, size: 0x8, addend: 0x0, symName: __ZNKSt3__15dequeINS_12basic_stringIcNS_11char_traitsIcEENS_9allocatorIcEEEENS4_IS6_EEE14__annotate_newB8ue170006Em, symObjAddr: 0xCB60, symBinAddr: 0x10000D18C, symSize: 0xE4 }
  - { offsetInCU: 0x254A1, offset: 0x254A1, size: 0x8, addend: 0x0, symName: __ZNSt3__114__split_bufferIPNS_12basic_stringIcNS_11char_traitsIcEENS_9allocatorIcEEEENS4_IS7_EEED1Ev, symObjAddr: 0xCC44, symBinAddr: 0x10000D270, symSize: 0x2C }
  - { offsetInCU: 0x254CD, offset: 0x254CD, size: 0x8, addend: 0x0, symName: __ZNSt3__114__split_bufferIPNS_12basic_stringIcNS_11char_traitsIcEENS_9allocatorIcEEEENS4_IS7_EEEC2B8ue170006Ev, symObjAddr: 0xCC70, symBinAddr: 0x10000D29C, symSize: 0x48 }
  - { offsetInCU: 0x254F7, offset: 0x254F7, size: 0x8, addend: 0x0, symName: __ZNSt3__117__compressed_pairIPPNS_12basic_stringIcNS_11char_traitsIcEENS_9allocatorIcEEEENS4_IS7_EEEC1B8ue170006IDnNS_18__default_init_tagEEEOT_OT0_, symObjAddr: 0xCCB8, symBinAddr: 0x10000D2E4, symSize: 0x3C }
  - { offsetInCU: 0x2554F, offset: 0x2554F, size: 0x8, addend: 0x0, symName: __ZNSt3__117__compressed_pairIPPNS_12basic_stringIcNS_11char_traitsIcEENS_9allocatorIcEEEENS4_IS7_EEEC2B8ue170006IDnNS_18__default_init_tagEEEOT_OT0_, symObjAddr: 0xCCF4, symBinAddr: 0x10000D320, symSize: 0x40 }
  - { offsetInCU: 0x255A7, offset: 0x255A7, size: 0x8, addend: 0x0, symName: __ZNSt3__122__compressed_pair_elemIPPNS_12basic_stringIcNS_11char_traitsIcEENS_9allocatorIcEEEELi0ELb0EEC2B8ue170006IDnvEEOT_, symObjAddr: 0xCD34, symBinAddr: 0x10000D360, symSize: 0x1C }
  - { offsetInCU: 0x255E9, offset: 0x255E9, size: 0x8, addend: 0x0, symName: __ZNSt3__122__compressed_pair_elemINS_9allocatorIPNS_12basic_stringIcNS_11char_traitsIcEENS1_IcEEEEEELi1ELb1EEC2B8ue170006ENS_18__default_init_tagE, symObjAddr: 0xCD50, symBinAddr: 0x10000D37C, symSize: 0x2C }
  - { offsetInCU: 0x2561D, offset: 0x2561D, size: 0x8, addend: 0x0, symName: __ZNSt3__19allocatorIPNS_12basic_stringIcNS_11char_traitsIcEENS0_IcEEEEEC2B8ue170006Ev, symObjAddr: 0xCD7C, symBinAddr: 0x10000D3A8, symSize: 0x2C }
  - { offsetInCU: 0x25647, offset: 0x25647, size: 0x8, addend: 0x0, symName: __ZNSt3__116__non_trivial_ifILb1ENS_9allocatorIPNS_12basic_stringIcNS_11char_traitsIcEENS1_IcEEEEEEEC2B8ue170006Ev, symObjAddr: 0xCDA8, symBinAddr: 0x10000D3D4, symSize: 0x14 }
  - { offsetInCU: 0x25671, offset: 0x25671, size: 0x8, addend: 0x0, symName: __ZNSt3__117__compressed_pairImNS_9allocatorINS_12basic_stringIcNS_11char_traitsIcEENS1_IcEEEEEEEC2B8ue170006IiNS_18__default_init_tagEEEOT_OT0_, symObjAddr: 0xCDBC, symBinAddr: 0x10000D3E8, symSize: 0x40 }
  - { offsetInCU: 0x256C9, offset: 0x256C9, size: 0x8, addend: 0x0, symName: __ZNKSt3__15dequeINS_12basic_stringIcNS_11char_traitsIcEENS_9allocatorIcEEEENS4_IS6_EEE18__annotate_from_toB8ue170006EmmNS8_22__asan_annotation_typeENS8_23__asan_annotation_placeE, symObjAddr: 0xCDFC, symBinAddr: 0x10000D428, symSize: 0x598 }
  - { offsetInCU: 0x25885, offset: 0x25885, size: 0x8, addend: 0x0, symName: __ZNKSt3__114__split_bufferIPNS_12basic_stringIcNS_11char_traitsIcEENS_9allocatorIcEEEENS4_IS7_EEE4sizeB8ue170006Ev, symObjAddr: 0xD394, symBinAddr: 0x10000D9C0, symSize: 0x28 }
  - { offsetInCU: 0x258AB, offset: 0x258AB, size: 0x8, addend: 0x0, symName: __ZNKSt3__114__split_bufferIPNS_12basic_stringIcNS_11char_traitsIcEENS_9allocatorIcEEEENS4_IS7_EEE5beginB8ue170006Ev, symObjAddr: 0xD3BC, symBinAddr: 0x10000D9E8, symSize: 0x18 }
  - { offsetInCU: 0x258D1, offset: 0x258D1, size: 0x8, addend: 0x0, symName: __ZNKSt3__15dequeINS_12basic_stringIcNS_11char_traitsIcEENS_9allocatorIcEEEENS4_IS6_EEE4sizeB8ue170006Ev, symObjAddr: 0xD3D4, symBinAddr: 0x10000DA00, symSize: 0x28 }
  - { offsetInCU: 0x258F7, offset: 0x258F7, size: 0x8, addend: 0x0, symName: __ZNKSt3__15dequeINS_12basic_stringIcNS_11char_traitsIcEENS_9allocatorIcEEEENS4_IS6_EEE5emptyB8ue170006Ev, symObjAddr: 0xD3FC, symBinAddr: 0x10000DA28, symSize: 0x30 }
  - { offsetInCU: 0x2591D, offset: 0x2591D, size: 0x8, addend: 0x0, symName: __ZNKSt3__15dequeINS_12basic_stringIcNS_11char_traitsIcEENS_9allocatorIcEEEENS4_IS6_EEE44__annotate_double_ended_contiguous_containerB8ue170006EPKvSA_SA_SA_SA_SA_, symObjAddr: 0xD440, symBinAddr: 0x10000DA6C, symSize: 0x28 }
  - { offsetInCU: 0x25985, offset: 0x25985, size: 0x8, addend: 0x0, symName: __ZNKSt3__15dequeINS_12basic_stringIcNS_11char_traitsIcEENS_9allocatorIcEEEENS4_IS6_EEE6__sizeB8ue170006Ev, symObjAddr: 0xD468, symBinAddr: 0x10000DA94, symSize: 0x28 }
  - { offsetInCU: 0x259AB, offset: 0x259AB, size: 0x8, addend: 0x0, symName: __ZNKSt3__117__compressed_pairImNS_9allocatorINS_12basic_stringIcNS_11char_traitsIcEENS1_IcEEEEEEE5firstB8ue170006Ev, symObjAddr: 0xD490, symBinAddr: 0x10000DABC, symSize: 0x24 }
  - { offsetInCU: 0x259D1, offset: 0x259D1, size: 0x8, addend: 0x0, symName: __ZNKSt3__122__compressed_pair_elemImLi0ELb0EE5__getB8ue170006Ev, symObjAddr: 0xD4B4, symBinAddr: 0x10000DAE0, symSize: 0x14 }
  - { offsetInCU: 0x259F7, offset: 0x259F7, size: 0x8, addend: 0x0, symName: __ZNSt3__114__split_bufferIPNS_12basic_stringIcNS_11char_traitsIcEENS_9allocatorIcEEEENS4_IS7_EEED2Ev, symObjAddr: 0xD4C8, symBinAddr: 0x10000DAF4, symSize: 0x80 }
  - { offsetInCU: 0x25A23, offset: 0x25A23, size: 0x8, addend: 0x0, symName: __ZNSt3__114__split_bufferIPNS_12basic_stringIcNS_11char_traitsIcEENS_9allocatorIcEEEENS4_IS7_EEE5clearB8ue170006Ev, symObjAddr: 0xD548, symBinAddr: 0x10000DB74, symSize: 0x28 }
  - { offsetInCU: 0x25A49, offset: 0x25A49, size: 0x8, addend: 0x0, symName: __ZNSt3__116allocator_traitsINS_9allocatorIPNS_12basic_stringIcNS_11char_traitsIcEENS1_IcEEEEEEE10deallocateB8ue170006ERS8_PS7_m, symObjAddr: 0xD570, symBinAddr: 0x10000DB9C, symSize: 0x34 }
  - { offsetInCU: 0x25A8B, offset: 0x25A8B, size: 0x8, addend: 0x0, symName: __ZNSt3__114__split_bufferIPNS_12basic_stringIcNS_11char_traitsIcEENS_9allocatorIcEEEENS4_IS7_EEE7__allocB8ue170006Ev, symObjAddr: 0xD5A4, symBinAddr: 0x10000DBD0, symSize: 0x28 }
  - { offsetInCU: 0x25AB1, offset: 0x25AB1, size: 0x8, addend: 0x0, symName: __ZNKSt3__114__split_bufferIPNS_12basic_stringIcNS_11char_traitsIcEENS_9allocatorIcEEEENS4_IS7_EEE8capacityB8ue170006Ev, symObjAddr: 0xD5CC, symBinAddr: 0x10000DBF8, symSize: 0x40 }
  - { offsetInCU: 0x25AD7, offset: 0x25AD7, size: 0x8, addend: 0x0, symName: __ZNSt3__114__split_bufferIPNS_12basic_stringIcNS_11char_traitsIcEENS_9allocatorIcEEEENS4_IS7_EEE17__destruct_at_endB8ue170006EPS7_, symObjAddr: 0xD60C, symBinAddr: 0x10000DC38, symSize: 0x2C }
  - { offsetInCU: 0x25B0B, offset: 0x25B0B, size: 0x8, addend: 0x0, symName: __ZNSt3__114__split_bufferIPNS_12basic_stringIcNS_11char_traitsIcEENS_9allocatorIcEEEENS4_IS7_EEE17__destruct_at_endB8ue170006EPS7_NS_17integral_constantIbLb0EEE, symObjAddr: 0xD638, symBinAddr: 0x10000DC64, symSize: 0x94 }
  - { offsetInCU: 0x25B4B, offset: 0x25B4B, size: 0x8, addend: 0x0, symName: __ZNSt3__116allocator_traitsINS_9allocatorIPNS_12basic_stringIcNS_11char_traitsIcEENS1_IcEEEEEEE7destroyB8ue170006IS7_vEEvRS8_PT_, symObjAddr: 0xD6CC, symBinAddr: 0x10000DCF8, symSize: 0x2C }
  - { offsetInCU: 0x25B88, offset: 0x25B88, size: 0x8, addend: 0x0, symName: __ZNSt3__19allocatorIPNS_12basic_stringIcNS_11char_traitsIcEENS0_IcEEEEE7destroyB8ue170006EPS6_, symObjAddr: 0xD70C, symBinAddr: 0x10000DD38, symSize: 0x14 }
  - { offsetInCU: 0x25BBC, offset: 0x25BBC, size: 0x8, addend: 0x0, symName: __ZNSt3__19allocatorIPNS_12basic_stringIcNS_11char_traitsIcEENS0_IcEEEEE10deallocateB8ue170006EPS6_m, symObjAddr: 0xD720, symBinAddr: 0x10000DD4C, symSize: 0x70 }
  - { offsetInCU: 0x25BFE, offset: 0x25BFE, size: 0x8, addend: 0x0, symName: __ZNSt3__117__compressed_pairIPPNS_12basic_stringIcNS_11char_traitsIcEENS_9allocatorIcEEEENS4_IS7_EEE6secondB8ue170006Ev, symObjAddr: 0xD790, symBinAddr: 0x10000DDBC, symSize: 0x24 }
  - { offsetInCU: 0x25C24, offset: 0x25C24, size: 0x8, addend: 0x0, symName: __ZNSt3__122__compressed_pair_elemINS_9allocatorIPNS_12basic_stringIcNS_11char_traitsIcEENS1_IcEEEEEELi1ELb1EE5__getB8ue170006Ev, symObjAddr: 0xD7B4, symBinAddr: 0x10000DDE0, symSize: 0x14 }
  - { offsetInCU: 0x25C4A, offset: 0x25C4A, size: 0x8, addend: 0x0, symName: __ZNKSt3__114__split_bufferIPNS_12basic_stringIcNS_11char_traitsIcEENS_9allocatorIcEEEENS4_IS7_EEE9__end_capB8ue170006Ev, symObjAddr: 0xD7C8, symBinAddr: 0x10000DDF4, symSize: 0x28 }
  - { offsetInCU: 0x25C70, offset: 0x25C70, size: 0x8, addend: 0x0, symName: __ZNKSt3__117__compressed_pairIPPNS_12basic_stringIcNS_11char_traitsIcEENS_9allocatorIcEEEENS4_IS7_EEE5firstB8ue170006Ev, symObjAddr: 0xD7F0, symBinAddr: 0x10000DE1C, symSize: 0x24 }
  - { offsetInCU: 0x25C96, offset: 0x25C96, size: 0x8, addend: 0x0, symName: __ZNKSt3__122__compressed_pair_elemIPPNS_12basic_stringIcNS_11char_traitsIcEENS_9allocatorIcEEEELi0ELb0EE5__getB8ue170006Ev, symObjAddr: 0xD814, symBinAddr: 0x10000DE40, symSize: 0x14 }
  - { offsetInCU: 0x25CBC, offset: 0x25CBC, size: 0x8, addend: 0x0, symName: __ZNSt3__111char_traitsIcE6lengthB8ue170006EPKc, symObjAddr: 0xD828, symBinAddr: 0x10000DE54, symSize: 0x48 }
  - { offsetInCU: 0x25CEA, offset: 0x25CEA, size: 0x8, addend: 0x0, symName: __ZNSt3__116allocator_traitsINS_9allocatorIcEEE37select_on_container_copy_constructionB8ue170006IS2_vvEES2_RKS2_, symObjAddr: 0xD870, symBinAddr: 0x10000DE9C, symSize: 0x10 }
  - { offsetInCU: 0x25D19, offset: 0x25D19, size: 0x8, addend: 0x0, symName: __ZNKSt3__112basic_stringIcNS_11char_traitsIcEENS_9allocatorIcEEE13get_allocatorB8ue170006Ev, symObjAddr: 0xD880, symBinAddr: 0x10000DEAC, symSize: 0x24 }
  - { offsetInCU: 0x25D3F, offset: 0x25D3F, size: 0x8, addend: 0x0, symName: __ZNSt3__112basic_stringIcNS_11char_traitsIcEENS_9allocatorIcEEEC1B8ue170006ENS_24__uninitialized_size_tagEmRKS4_, symObjAddr: 0xD8A4, symBinAddr: 0x10000DED0, symSize: 0x3C }
  - { offsetInCU: 0x25D92, offset: 0x25D92, size: 0x8, addend: 0x0, symName: __ZNSt3__112basic_stringIcNS_11char_traitsIcEENS_9allocatorIcEEE13__get_pointerB8ue170006Ev, symObjAddr: 0xD8F4, symBinAddr: 0x10000DF20, symSize: 0x54 }
  - { offsetInCU: 0x25DB8, offset: 0x25DB8, size: 0x8, addend: 0x0, symName: __ZNSt3__111char_traitsIcE4copyB8ue170006EPcPKcm, symObjAddr: 0xD948, symBinAddr: 0x10000DF74, symSize: 0x64 }
  - { offsetInCU: 0x25DF7, offset: 0x25DF7, size: 0x8, addend: 0x0, symName: __ZNSt3__111char_traitsIcE6assignB8ue170006EPcmc, symObjAddr: 0xD9AC, symBinAddr: 0x10000DFD8, symSize: 0x58 }
  - { offsetInCU: 0x25E36, offset: 0x25E36, size: 0x8, addend: 0x0, symName: __ZNKSt3__112basic_stringIcNS_11char_traitsIcEENS_9allocatorIcEEE7__allocB8ue170006Ev, symObjAddr: 0xDA28, symBinAddr: 0x10000E054, symSize: 0x24 }
  - { offsetInCU: 0x25E5C, offset: 0x25E5C, size: 0x8, addend: 0x0, symName: __ZNKSt3__117__compressed_pairINS_12basic_stringIcNS_11char_traitsIcEENS_9allocatorIcEEE5__repES5_E6secondB8ue170006Ev, symObjAddr: 0xDA4C, symBinAddr: 0x10000E078, symSize: 0x24 }
  - { offsetInCU: 0x25E82, offset: 0x25E82, size: 0x8, addend: 0x0, symName: __ZNKSt3__122__compressed_pair_elemINS_9allocatorIcEELi1ELb1EE5__getB8ue170006Ev, symObjAddr: 0xDA70, symBinAddr: 0x10000E09C, symSize: 0x14 }
  - { offsetInCU: 0x25EA8, offset: 0x25EA8, size: 0x8, addend: 0x0, symName: __ZNSt3__112basic_stringIcNS_11char_traitsIcEENS_9allocatorIcEEEC2B8ue170006ENS_24__uninitialized_size_tagEmRKS4_, symObjAddr: 0xDA84, symBinAddr: 0x10000E0B0, symSize: 0x110 }
  - { offsetInCU: 0x25F27, offset: 0x25F27, size: 0x8, addend: 0x0, symName: __ZNSt3__117__compressed_pairINS_12basic_stringIcNS_11char_traitsIcEENS_9allocatorIcEEE5__repES5_EC1B8ue170006INS_18__default_init_tagERKS5_EEOT_OT0_, symObjAddr: 0xDB94, symBinAddr: 0x10000E1C0, symSize: 0x3C }
  - { offsetInCU: 0x25F7F, offset: 0x25F7F, size: 0x8, addend: 0x0, symName: __ZNKSt3__112basic_stringIcNS_11char_traitsIcEENS_9allocatorIcEEE8max_sizeB8ue170006Ev, symObjAddr: 0xDBD0, symBinAddr: 0x10000E1FC, symSize: 0xAC }
  - { offsetInCU: 0x25FD1, offset: 0x25FD1, size: 0x8, addend: 0x0, symName: __ZNKSt3__112basic_stringIcNS_11char_traitsIcEENS_9allocatorIcEEE20__throw_length_errorB8ue170006Ev, symObjAddr: 0xDC7C, symBinAddr: 0x10000E2A8, symSize: 0x1C }
  - { offsetInCU: 0x25FF7, offset: 0x25FF7, size: 0x8, addend: 0x0, symName: __ZNSt3__112basic_stringIcNS_11char_traitsIcEENS_9allocatorIcEEE13__fits_in_ssoB8ue170006Em, symObjAddr: 0xDC98, symBinAddr: 0x10000E2C4, symSize: 0x4C }
  - { offsetInCU: 0x2601B, offset: 0x2601B, size: 0x8, addend: 0x0, symName: __ZNSt3__117__compressed_pairINS_12basic_stringIcNS_11char_traitsIcEENS_9allocatorIcEEE5__repES5_E5firstB8ue170006Ev, symObjAddr: 0xDCE4, symBinAddr: 0x10000E310, symSize: 0x24 }
  - { offsetInCU: 0x26041, offset: 0x26041, size: 0x8, addend: 0x0, symName: __ZNSt3__112basic_stringIcNS_11char_traitsIcEENS_9allocatorIcEEE16__set_short_sizeB8ue170006Em, symObjAddr: 0xDD08, symBinAddr: 0x10000E334, symSize: 0x78 }
  - { offsetInCU: 0x26076, offset: 0x26076, size: 0x8, addend: 0x0, symName: __ZNSt3__112basic_stringIcNS_11char_traitsIcEENS_9allocatorIcEEE11__recommendB8ue170006Em, symObjAddr: 0xDD80, symBinAddr: 0x10000E3AC, symSize: 0x9C }
  - { offsetInCU: 0x260A9, offset: 0x260A9, size: 0x8, addend: 0x0, symName: __ZNSt3__116allocator_traitsINS_9allocatorIcEEE8allocateB8ue170006ERS2_m, symObjAddr: 0xDE1C, symBinAddr: 0x10000E448, symSize: 0x2C }
  - { offsetInCU: 0x260DC, offset: 0x260DC, size: 0x8, addend: 0x0, symName: __ZNSt3__112basic_stringIcNS_11char_traitsIcEENS_9allocatorIcEEE7__allocB8ue170006Ev, symObjAddr: 0xDE48, symBinAddr: 0x10000E474, symSize: 0x24 }
  - { offsetInCU: 0x26102, offset: 0x26102, size: 0x8, addend: 0x0, symName: __ZNSt3__112basic_stringIcNS_11char_traitsIcEENS_9allocatorIcEEE16__begin_lifetimeB8ue170006EPcm, symObjAddr: 0xDE6C, symBinAddr: 0x10000E498, symSize: 0x14 }
  - { offsetInCU: 0x26135, offset: 0x26135, size: 0x8, addend: 0x0, symName: __ZNSt3__112basic_stringIcNS_11char_traitsIcEENS_9allocatorIcEEE14__set_long_capB8ue170006Em, symObjAddr: 0xDE80, symBinAddr: 0x10000E4AC, symSize: 0x70 }
  - { offsetInCU: 0x2616A, offset: 0x2616A, size: 0x8, addend: 0x0, symName: __ZNSt3__112basic_stringIcNS_11char_traitsIcEENS_9allocatorIcEEE18__set_long_pointerB8ue170006EPc, symObjAddr: 0xDEF0, symBinAddr: 0x10000E51C, symSize: 0x38 }
  - { offsetInCU: 0x2619F, offset: 0x2619F, size: 0x8, addend: 0x0, symName: __ZNSt3__112basic_stringIcNS_11char_traitsIcEENS_9allocatorIcEEE15__set_long_sizeB8ue170006Em, symObjAddr: 0xDF28, symBinAddr: 0x10000E554, symSize: 0x38 }
  - { offsetInCU: 0x261D4, offset: 0x261D4, size: 0x8, addend: 0x0, symName: __ZNSt3__117__compressed_pairINS_12basic_stringIcNS_11char_traitsIcEENS_9allocatorIcEEE5__repES5_EC2B8ue170006INS_18__default_init_tagERKS5_EEOT_OT0_, symObjAddr: 0xDF60, symBinAddr: 0x10000E58C, symSize: 0x40 }
  - { offsetInCU: 0x2622C, offset: 0x2622C, size: 0x8, addend: 0x0, symName: __ZNSt3__122__compressed_pair_elemINS_12basic_stringIcNS_11char_traitsIcEENS_9allocatorIcEEE5__repELi0ELb0EEC2B8ue170006ENS_18__default_init_tagE, symObjAddr: 0xDFA0, symBinAddr: 0x10000E5CC, symSize: 0x14 }
  - { offsetInCU: 0x26260, offset: 0x26260, size: 0x8, addend: 0x0, symName: __ZNSt3__122__compressed_pair_elemINS_9allocatorIcEELi1ELb1EEC2B8ue170006IRKS2_vEEOT_, symObjAddr: 0xDFB4, symBinAddr: 0x10000E5E0, symSize: 0x18 }
  - { offsetInCU: 0x262A2, offset: 0x262A2, size: 0x8, addend: 0x0, symName: __ZNSt3__116allocator_traitsINS_9allocatorIcEEE8max_sizeB8ue170006IS2_vEEmRKS2_, symObjAddr: 0xDFCC, symBinAddr: 0x10000E5F8, symSize: 0x24 }
  - { offsetInCU: 0x262D0, offset: 0x262D0, size: 0x8, addend: 0x0, symName: __ZNSt3__114numeric_limitsImE3maxB8ue170006Ev, symObjAddr: 0xDFF0, symBinAddr: 0x10000E61C, symSize: 0x14 }
  - { offsetInCU: 0x262E4, offset: 0x262E4, size: 0x8, addend: 0x0, symName: __ZNKSt3__19allocatorIcE8max_sizeB8ue170006Ev, symObjAddr: 0xE004, symBinAddr: 0x10000E630, symSize: 0x14 }
  - { offsetInCU: 0x2630A, offset: 0x2630A, size: 0x8, addend: 0x0, symName: __ZNSt3__123__libcpp_numeric_limitsImLb1EE3maxB8ue170006Ev, symObjAddr: 0xE018, symBinAddr: 0x10000E644, symSize: 0x8 }
  - { offsetInCU: 0x2631E, offset: 0x2631E, size: 0x8, addend: 0x0, symName: __ZNSt3__122__compressed_pair_elemINS_12basic_stringIcNS_11char_traitsIcEENS_9allocatorIcEEE5__repELi0ELb0EE5__getB8ue170006Ev, symObjAddr: 0xE020, symBinAddr: 0x10000E64C, symSize: 0x14 }
  - { offsetInCU: 0x26344, offset: 0x26344, size: 0x8, addend: 0x0, symName: __ZNSt3__112basic_stringIcNS_11char_traitsIcEENS_9allocatorIcEEE10__align_itB8ue170006ILm16EEEmm, symObjAddr: 0xE034, symBinAddr: 0x10000E660, symSize: 0x1C }
  - { offsetInCU: 0x26372, offset: 0x26372, size: 0x8, addend: 0x0, symName: __ZNSt3__19allocatorIcE8allocateB8ue170006Em, symObjAddr: 0xE050, symBinAddr: 0x10000E67C, symSize: 0x84 }
  - { offsetInCU: 0x263A6, offset: 0x263A6, size: 0x8, addend: 0x0, symName: __ZNSt3__117__compressed_pairINS_12basic_stringIcNS_11char_traitsIcEENS_9allocatorIcEEE5__repES5_E6secondB8ue170006Ev, symObjAddr: 0xE0D4, symBinAddr: 0x10000E700, symSize: 0x24 }
  - { offsetInCU: 0x263CC, offset: 0x263CC, size: 0x8, addend: 0x0, symName: __ZNSt3__122__compressed_pair_elemINS_9allocatorIcEELi1ELb1EE5__getB8ue170006Ev, symObjAddr: 0xE0F8, symBinAddr: 0x10000E724, symSize: 0x14 }
  - { offsetInCU: 0x263F2, offset: 0x263F2, size: 0x8, addend: 0x0, symName: __ZNSt3__112basic_stringIcNS_11char_traitsIcEENS_9allocatorIcEEE18__get_long_pointerB8ue170006Ev, symObjAddr: 0xE10C, symBinAddr: 0x10000E738, symSize: 0x28 }
  - { offsetInCU: 0x26418, offset: 0x26418, size: 0x8, addend: 0x0, symName: __ZNSt3__112basic_stringIcNS_11char_traitsIcEENS_9allocatorIcEEE19__get_short_pointerB8ue170006Ev, symObjAddr: 0xE134, symBinAddr: 0x10000E760, symSize: 0x28 }
  - { offsetInCU: 0x2643E, offset: 0x2643E, size: 0x8, addend: 0x0, symName: __ZNSt3__114pointer_traitsIPcE10pointer_toB8ue170006ERc, symObjAddr: 0xE15C, symBinAddr: 0x10000E788, symSize: 0x14 }
  - { offsetInCU: 0x26494, offset: 0x26494, size: 0x8, addend: 0x0, symName: __ZNKSt3__114__copy_trivialclB8ue170006IKccLi0EEENS_4pairIPT_PT0_EES5_S5_S7_, symObjAddr: 0xE390, symBinAddr: 0x10000E9BC, symSize: 0x48 }
  - { offsetInCU: 0x26519, offset: 0x26519, size: 0x8, addend: 0x0, symName: __ZNSt3__14pairIPKcS2_EC1B8ue170006ERKS2_S5_, symObjAddr: 0xE50C, symBinAddr: 0x10000EB38, symSize: 0x3C }
  - { offsetInCU: 0x2655F, offset: 0x2655F, size: 0x8, addend: 0x0, symName: __ZNSt3__14pairIPKcS2_EC2B8ue170006ERKS2_S5_, symObjAddr: 0xE548, symBinAddr: 0x10000EB74, symSize: 0x34 }
  - { offsetInCU: 0x265A5, offset: 0x265A5, size: 0x8, addend: 0x0, symName: __ZNSt3__118__unwrap_iter_implIPKcLb1EE8__unwrapB8ue170006ES2_, symObjAddr: 0xE57C, symBinAddr: 0x10000EBA8, symSize: 0x24 }
  - { offsetInCU: 0x265C8, offset: 0x265C8, size: 0x8, addend: 0x0, symName: __ZNSt3__14pairIPKcPcEC1B8ue170006ERKS2_RKS3_, symObjAddr: 0xE6F0, symBinAddr: 0x10000ED1C, symSize: 0x3C }
  - { offsetInCU: 0x2660E, offset: 0x2660E, size: 0x8, addend: 0x0, symName: __ZNSt3__14pairIPKcPcEC2B8ue170006ERKS2_RKS3_, symObjAddr: 0xE72C, symBinAddr: 0x10000ED58, symSize: 0x34 }
  - { offsetInCU: 0x26654, offset: 0x26654, size: 0x8, addend: 0x0, symName: __ZNSt3__118__unwrap_iter_implIPcLb1EE8__unwrapB8ue170006ES1_, symObjAddr: 0xE760, symBinAddr: 0x10000ED8C, symSize: 0x24 }
  - { offsetInCU: 0x26677, offset: 0x26677, size: 0x8, addend: 0x0, symName: __ZNSt3__118__unwrap_iter_implIPKcLb1EE8__rewrapB8ue170006ES2_S2_, symObjAddr: 0xE7D4, symBinAddr: 0x10000EE00, symSize: 0x48 }
  - { offsetInCU: 0x266A8, offset: 0x266A8, size: 0x8, addend: 0x0, symName: __ZNSt3__118__unwrap_iter_implIPcLb1EE8__rewrapB8ue170006ES1_S1_, symObjAddr: 0xE81C, symBinAddr: 0x10000EE48, symSize: 0x48 }
  - { offsetInCU: 0x266D9, offset: 0x266D9, size: 0x8, addend: 0x0, symName: __ZNSt3__112basic_stringIcNS_11char_traitsIcEENS_9allocatorIcEEE6appendB8ue170006ERKS5_, symObjAddr: 0xE920, symBinAddr: 0x10000EF4C, symSize: 0x4C }
  - { offsetInCU: 0x2670E, offset: 0x2670E, size: 0x8, addend: 0x0, symName: __ZNSt3__15dequeINS_12basic_stringIcNS_11char_traitsIcEENS_9allocatorIcEEEENS4_IS6_EEE4backEv, symObjAddr: 0xE96C, symBinAddr: 0x10000EF98, symSize: 0x70 }
  - { offsetInCU: 0x26745, offset: 0x26745, size: 0x8, addend: 0x0, symName: __ZNSt3__114__split_bufferIPNS_12basic_stringIcNS_11char_traitsIcEENS_9allocatorIcEEEENS4_IS7_EEE5beginB8ue170006Ev, symObjAddr: 0xE9DC, symBinAddr: 0x10000F008, symSize: 0x18 }
  - { offsetInCU: 0x2676B, offset: 0x2676B, size: 0x8, addend: 0x0, symName: __ZNSt3__15dequeINS_12basic_stringIcNS_11char_traitsIcEENS_9allocatorIcEEEENS4_IS6_EEE8pop_backEv, symObjAddr: 0xE9F4, symBinAddr: 0x10000F020, symSize: 0xE8 }
  - { offsetInCU: 0x267CF, offset: 0x267CF, size: 0x8, addend: 0x0, symName: __ZNSt3__15dequeINS_12basic_stringIcNS_11char_traitsIcEENS_9allocatorIcEEEENS4_IS6_EEE7__allocB8ue170006Ev, symObjAddr: 0xEADC, symBinAddr: 0x10000F108, symSize: 0x28 }
  - { offsetInCU: 0x267F5, offset: 0x267F5, size: 0x8, addend: 0x0, symName: __ZNSt3__116allocator_traitsINS_9allocatorINS_12basic_stringIcNS_11char_traitsIcEENS1_IcEEEEEEE7destroyB8ue170006IS6_vEEvRS7_PT_, symObjAddr: 0xEB04, symBinAddr: 0x10000F130, symSize: 0x2C }
  - { offsetInCU: 0x26832, offset: 0x26832, size: 0x8, addend: 0x0, symName: __ZNSt3__15dequeINS_12basic_stringIcNS_11char_traitsIcEENS_9allocatorIcEEEENS4_IS6_EEE6__sizeB8ue170006Ev, symObjAddr: 0xEB30, symBinAddr: 0x10000F15C, symSize: 0x28 }
  - { offsetInCU: 0x26858, offset: 0x26858, size: 0x8, addend: 0x0, symName: __ZNKSt3__15dequeINS_12basic_stringIcNS_11char_traitsIcEENS_9allocatorIcEEEENS4_IS6_EEE22__annotate_shrink_backB8ue170006Emm, symObjAddr: 0xEB58, symBinAddr: 0x10000F184, symSize: 0x60 }
  - { offsetInCU: 0x2689C, offset: 0x2689C, size: 0x8, addend: 0x0, symName: __ZNSt3__15dequeINS_12basic_stringIcNS_11char_traitsIcEENS_9allocatorIcEEEENS4_IS6_EEE25__maybe_remove_back_spareB8ue170006Eb, symObjAddr: 0xEBB8, symBinAddr: 0x10000F1E4, symSize: 0xE8 }
  - { offsetInCU: 0x268D1, offset: 0x268D1, size: 0x8, addend: 0x0, symName: __ZNSt3__117__compressed_pairImNS_9allocatorINS_12basic_stringIcNS_11char_traitsIcEENS1_IcEEEEEEE6secondB8ue170006Ev, symObjAddr: 0xECA0, symBinAddr: 0x10000F2CC, symSize: 0x24 }
  - { offsetInCU: 0x268F7, offset: 0x268F7, size: 0x8, addend: 0x0, symName: __ZNSt3__122__compressed_pair_elemINS_9allocatorINS_12basic_stringIcNS_11char_traitsIcEENS1_IcEEEEEELi1ELb1EE5__getB8ue170006Ev, symObjAddr: 0xECC4, symBinAddr: 0x10000F2F0, symSize: 0x14 }
  - { offsetInCU: 0x2691D, offset: 0x2691D, size: 0x8, addend: 0x0, symName: __ZNSt3__19allocatorINS_12basic_stringIcNS_11char_traitsIcEENS0_IcEEEEE7destroyB8ue170006EPS5_, symObjAddr: 0xECD8, symBinAddr: 0x10000F304, symSize: 0x28 }
  - { offsetInCU: 0x26951, offset: 0x26951, size: 0x8, addend: 0x0, symName: __ZNSt3__117__compressed_pairImNS_9allocatorINS_12basic_stringIcNS_11char_traitsIcEENS1_IcEEEEEEE5firstB8ue170006Ev, symObjAddr: 0xED00, symBinAddr: 0x10000F32C, symSize: 0x24 }
  - { offsetInCU: 0x26977, offset: 0x26977, size: 0x8, addend: 0x0, symName: __ZNKSt3__15dequeINS_12basic_stringIcNS_11char_traitsIcEENS_9allocatorIcEEEENS4_IS6_EEE19__back_spare_blocksB8ue170006Ev, symObjAddr: 0xED24, symBinAddr: 0x10000F350, symSize: 0x2C }
  - { offsetInCU: 0x2699D, offset: 0x2699D, size: 0x8, addend: 0x0, symName: __ZNKSt3__15dequeINS_12basic_stringIcNS_11char_traitsIcEENS_9allocatorIcEEEENS4_IS6_EEE22__annotate_whole_blockB8ue170006EmNS8_22__asan_annotation_typeE, symObjAddr: 0xED50, symBinAddr: 0x10000F37C, symSize: 0xAC }
  - { offsetInCU: 0x26A0E, offset: 0x26A0E, size: 0x8, addend: 0x0, symName: __ZNSt3__116allocator_traitsINS_9allocatorINS_12basic_stringIcNS_11char_traitsIcEENS1_IcEEEEEEE10deallocateB8ue170006ERS7_PS6_m, symObjAddr: 0xEDFC, symBinAddr: 0x10000F428, symSize: 0x34 }
  - { offsetInCU: 0x26A50, offset: 0x26A50, size: 0x8, addend: 0x0, symName: __ZNSt3__114__split_bufferIPNS_12basic_stringIcNS_11char_traitsIcEENS_9allocatorIcEEEENS4_IS7_EEE4backB8ue170006Ev, symObjAddr: 0xEE30, symBinAddr: 0x10000F45C, symSize: 0x1C }
  - { offsetInCU: 0x26A76, offset: 0x26A76, size: 0x8, addend: 0x0, symName: __ZNSt3__114__split_bufferIPNS_12basic_stringIcNS_11char_traitsIcEENS_9allocatorIcEEEENS4_IS7_EEE8pop_backB8ue170006Ev, symObjAddr: 0xEE4C, symBinAddr: 0x10000F478, symSize: 0x2C }
  - { offsetInCU: 0x26A9C, offset: 0x26A9C, size: 0x8, addend: 0x0, symName: __ZNKSt3__15dequeINS_12basic_stringIcNS_11char_traitsIcEENS_9allocatorIcEEEENS4_IS6_EEE12__back_spareB8ue170006Ev, symObjAddr: 0xEE78, symBinAddr: 0x10000F4A4, symSize: 0x54 }
  - { offsetInCU: 0x26AC2, offset: 0x26AC2, size: 0x8, addend: 0x0, symName: __ZNKSt3__15dequeINS_12basic_stringIcNS_11char_traitsIcEENS_9allocatorIcEEEENS4_IS6_EEE10__capacityB8ue170006Ev, symObjAddr: 0xEECC, symBinAddr: 0x10000F4F8, symSize: 0x64 }
  - { offsetInCU: 0x26AE8, offset: 0x26AE8, size: 0x8, addend: 0x0, symName: __ZNKSt3__15dequeINS_12basic_stringIcNS_11char_traitsIcEENS_9allocatorIcEEEENS4_IS6_EEE23__annotate_poison_blockB8ue170006EPKvSA_, symObjAddr: 0xEF30, symBinAddr: 0x10000F55C, symSize: 0x44 }
  - { offsetInCU: 0x26B2C, offset: 0x26B2C, size: 0x8, addend: 0x0, symName: __ZNSt3__19allocatorINS_12basic_stringIcNS_11char_traitsIcEENS0_IcEEEEE10deallocateB8ue170006EPS5_m, symObjAddr: 0xEF74, symBinAddr: 0x10000F5A0, symSize: 0x74 }
  - { offsetInCU: 0x26B6E, offset: 0x26B6E, size: 0x8, addend: 0x0, symName: __ZNSt3__15dequeINS_12basic_stringIcNS_11char_traitsIcEENS_9allocatorIcEEEENS4_IS6_EEE9push_backERKS6_, symObjAddr: 0xEFE8, symBinAddr: 0x10000F614, symSize: 0xAC }
  - { offsetInCU: 0x26BB4, offset: 0x26BB4, size: 0x8, addend: 0x0, symName: __ZNSt3__15dequeINS_12basic_stringIcNS_11char_traitsIcEENS_9allocatorIcEEEENS4_IS6_EEE19__add_back_capacityEv, symObjAddr: 0xF094, symBinAddr: 0x10000F6C0, symSize: 0x364 }
  - { offsetInCU: 0x26C69, offset: 0x26C69, size: 0x8, addend: 0x0, symName: __ZNKSt3__15dequeINS_12basic_stringIcNS_11char_traitsIcEENS_9allocatorIcEEEENS4_IS6_EEE24__annotate_increase_backB8ue170006Em, symObjAddr: 0xF3F8, symBinAddr: 0x10000FA24, symSize: 0x7C }
  - { offsetInCU: 0x26C9E, offset: 0x26C9E, size: 0x8, addend: 0x0, symName: __ZNSt3__116allocator_traitsINS_9allocatorINS_12basic_stringIcNS_11char_traitsIcEENS1_IcEEEEEEE9constructB8ue170006IS6_JRKS6_EvEEvRS7_PT_DpOT0_, symObjAddr: 0xF474, symBinAddr: 0x10000FAA0, symSize: 0x34 }
  - { offsetInCU: 0x26CF5, offset: 0x26CF5, size: 0x8, addend: 0x0, symName: __ZNSt3__15dequeINS_12basic_stringIcNS_11char_traitsIcEENS_9allocatorIcEEEENS4_IS6_EEE3endB8ue170006Ev, symObjAddr: 0xF4A8, symBinAddr: 0x10000FAD4, symSize: 0xE8 }
  - { offsetInCU: 0x26D39, offset: 0x26D39, size: 0x8, addend: 0x0, symName: __ZNKSt3__116__deque_iteratorINS_12basic_stringIcNS_11char_traitsIcEENS_9allocatorIcEEEEPS6_RS6_PS7_lLl170EEdeB8ue170006Ev, symObjAddr: 0xF590, symBinAddr: 0x10000FBBC, symSize: 0x18 }
  - { offsetInCU: 0x26D5F, offset: 0x26D5F, size: 0x8, addend: 0x0, symName: __ZNKSt3__15dequeINS_12basic_stringIcNS_11char_traitsIcEENS_9allocatorIcEEEENS4_IS6_EEE13__front_spareB8ue170006Ev, symObjAddr: 0xF5A8, symBinAddr: 0x10000FBD4, symSize: 0x18 }
  - { offsetInCU: 0x26D85, offset: 0x26D85, size: 0x8, addend: 0x0, symName: __ZNSt3__114__split_bufferIPNS_12basic_stringIcNS_11char_traitsIcEENS_9allocatorIcEEEENS4_IS7_EEE5frontB8ue170006Ev, symObjAddr: 0xF5C0, symBinAddr: 0x10000FBEC, symSize: 0x18 }
  - { offsetInCU: 0x26DAB, offset: 0x26DAB, size: 0x8, addend: 0x0, symName: __ZNSt3__114__split_bufferIPNS_12basic_stringIcNS_11char_traitsIcEENS_9allocatorIcEEEENS4_IS7_EEE9pop_frontB8ue170006Ev, symObjAddr: 0xF5D8, symBinAddr: 0x10000FC04, symSize: 0x2C }
  - { offsetInCU: 0x26DD1, offset: 0x26DD1, size: 0x8, addend: 0x0, symName: __ZNSt3__114__split_bufferIPNS_12basic_stringIcNS_11char_traitsIcEENS_9allocatorIcEEEENS4_IS7_EEE9push_backB8ue170006ERKS7_, symObjAddr: 0xF604, symBinAddr: 0x10000FC30, symSize: 0x270 }
  - { offsetInCU: 0x26E49, offset: 0x26E49, size: 0x8, addend: 0x0, symName: __ZNKSt3__114__split_bufferIPNS_12basic_stringIcNS_11char_traitsIcEENS_9allocatorIcEEEENS4_IS7_EEE12__back_spareB8ue170006Ev, symObjAddr: 0xF874, symBinAddr: 0x10000FEA0, symSize: 0x40 }
  - { offsetInCU: 0x26E6F, offset: 0x26E6F, size: 0x8, addend: 0x0, symName: __ZNSt3__114__split_bufferIPNS_12basic_stringIcNS_11char_traitsIcEENS_9allocatorIcEEEENS4_IS7_EEE9push_backEOS7_, symObjAddr: 0xF8B4, symBinAddr: 0x10000FEE0, symSize: 0x270 }
  - { offsetInCU: 0x26EE7, offset: 0x26EE7, size: 0x8, addend: 0x0, symName: __ZNSt3__116allocator_traitsINS_9allocatorINS_12basic_stringIcNS_11char_traitsIcEENS1_IcEEEEEEE8allocateB8ue170006ERS7_m, symObjAddr: 0xFB24, symBinAddr: 0x100010150, symSize: 0x2C }
  - { offsetInCU: 0x26F1A, offset: 0x26F1A, size: 0x8, addend: 0x0, symName: __ZNSt3__114__split_bufferIPNS_12basic_stringIcNS_11char_traitsIcEENS_9allocatorIcEEEENS4_IS7_EEE10push_frontEOS7_, symObjAddr: 0xFB50, symBinAddr: 0x10001017C, symSize: 0x26C }
  - { offsetInCU: 0x26F92, offset: 0x26F92, size: 0x8, addend: 0x0, symName: __ZNSt3__114__split_bufferIPNS_12basic_stringIcNS_11char_traitsIcEENS_9allocatorIcEEEERNS4_IS7_EEEC1EmmS9_, symObjAddr: 0xFDBC, symBinAddr: 0x1000103E8, symSize: 0x44 }
  - { offsetInCU: 0x26FEE, offset: 0x26FEE, size: 0x8, addend: 0x0, symName: __ZNSt3__122__allocator_destructorINS_9allocatorINS_12basic_stringIcNS_11char_traitsIcEENS1_IcEEEEEEEC1B8ue170006ERS7_m, symObjAddr: 0xFE00, symBinAddr: 0x10001042C, symSize: 0x3C }
  - { offsetInCU: 0x270B9, offset: 0x270B9, size: 0x8, addend: 0x0, symName: __ZNSt3__110unique_ptrIPNS_12basic_stringIcNS_11char_traitsIcEENS_9allocatorIcEEEENS_22__allocator_destructorINS4_IS6_EEEEEC1B8ue170006ILb1EvEES7_NS_16__dependent_typeINS_27__unique_ptr_deleter_sfinaeISA_EEXT_EE20__good_rval_ref_typeE, symObjAddr: 0xFE3C, symBinAddr: 0x100010468, symSize: 0x3C }
  - { offsetInCU: 0x2710A, offset: 0x2710A, size: 0x8, addend: 0x0, symName: __ZNSt3__114__split_bufferIPNS_12basic_stringIcNS_11char_traitsIcEENS_9allocatorIcEEEERNS4_IS7_EEE9push_backEOS7_, symObjAddr: 0xFE78, symBinAddr: 0x1000104A4, symSize: 0x270 }
  - { offsetInCU: 0x27182, offset: 0x27182, size: 0x8, addend: 0x0, symName: __ZNKSt3__110unique_ptrIPNS_12basic_stringIcNS_11char_traitsIcEENS_9allocatorIcEEEENS_22__allocator_destructorINS4_IS6_EEEEE3getB8ue170006Ev, symObjAddr: 0x100E8, symBinAddr: 0x100010714, symSize: 0x28 }
  - { offsetInCU: 0x271A8, offset: 0x271A8, size: 0x8, addend: 0x0, symName: __ZNSt3__110unique_ptrIPNS_12basic_stringIcNS_11char_traitsIcEENS_9allocatorIcEEEENS_22__allocator_destructorINS4_IS6_EEEEE7releaseB8ue170006Ev, symObjAddr: 0x10110, symBinAddr: 0x10001073C, symSize: 0x44 }
  - { offsetInCU: 0x271DD, offset: 0x271DD, size: 0x8, addend: 0x0, symName: __ZNSt3__114__split_bufferIPNS_12basic_stringIcNS_11char_traitsIcEENS_9allocatorIcEEEENS4_IS7_EEE3endB8ue170006Ev, symObjAddr: 0x10154, symBinAddr: 0x100010780, symSize: 0x18 }
  - { offsetInCU: 0x27203, offset: 0x27203, size: 0x8, addend: 0x0, symName: __ZNSt3__114__split_bufferIPNS_12basic_stringIcNS_11char_traitsIcEENS_9allocatorIcEEEERNS4_IS7_EEE10push_frontERKS7_, symObjAddr: 0x1016C, symBinAddr: 0x100010798, symSize: 0x26C }
  - { offsetInCU: 0x2727B, offset: 0x2727B, size: 0x8, addend: 0x0, symName: __ZNSt3__114__split_bufferIPNS_12basic_stringIcNS_11char_traitsIcEENS_9allocatorIcEEEENS4_IS7_EEE9__end_capB8ue170006Ev, symObjAddr: 0x10414, symBinAddr: 0x100010A40, symSize: 0x28 }
  - { offsetInCU: 0x272A1, offset: 0x272A1, size: 0x8, addend: 0x0, symName: __ZNSt3__114__split_bufferIPNS_12basic_stringIcNS_11char_traitsIcEENS_9allocatorIcEEEERNS4_IS7_EEE9__end_capB8ue170006Ev, symObjAddr: 0x1043C, symBinAddr: 0x100010A68, symSize: 0x28 }
  - { offsetInCU: 0x272C7, offset: 0x272C7, size: 0x8, addend: 0x0, symName: __ZNSt3__110unique_ptrIPNS_12basic_stringIcNS_11char_traitsIcEENS_9allocatorIcEEEENS_22__allocator_destructorINS4_IS6_EEEEED1B8ue170006Ev, symObjAddr: 0x10464, symBinAddr: 0x100010A90, symSize: 0x2C }
  - { offsetInCU: 0x272F1, offset: 0x272F1, size: 0x8, addend: 0x0, symName: __ZNSt3__114__split_bufferIPNS_12basic_stringIcNS_11char_traitsIcEENS_9allocatorIcEEEERNS4_IS7_EEED1Ev, symObjAddr: 0x10490, symBinAddr: 0x100010ABC, symSize: 0x2C }
  - { offsetInCU: 0x2731D, offset: 0x2731D, size: 0x8, addend: 0x0, symName: __ZNSt3__114__split_bufferIPNS_12basic_stringIcNS_11char_traitsIcEENS_9allocatorIcEEEENS4_IS7_EEE19__destruct_at_beginB8ue170006EPS7_, symObjAddr: 0x104BC, symBinAddr: 0x100010AE8, symSize: 0x2C }
  - { offsetInCU: 0x27351, offset: 0x27351, size: 0x8, addend: 0x0, symName: __ZNSt3__114__split_bufferIPNS_12basic_stringIcNS_11char_traitsIcEENS_9allocatorIcEEEENS4_IS7_EEE19__destruct_at_beginEPS7_NS_17integral_constantIbLb1EEE, symObjAddr: 0x104E8, symBinAddr: 0x100010B14, symSize: 0x20 }
  - { offsetInCU: 0x27391, offset: 0x27391, size: 0x8, addend: 0x0, symName: __ZNSt3__114__split_bufferIPNS_12basic_stringIcNS_11char_traitsIcEENS_9allocatorIcEEEERNS4_IS7_EEE18__construct_at_endINS_13move_iteratorIPS7_EEEENS_9enable_ifIXsr31__has_forward_iterator_categoryIT_EE5valueEvE4typeESG_SG_, symObjAddr: 0x10548, symBinAddr: 0x100010B74, symSize: 0x60 }
  - { offsetInCU: 0x273DE, offset: 0x273DE, size: 0x8, addend: 0x0, symName: __ZNSt3__113move_iteratorIPPNS_12basic_stringIcNS_11char_traitsIcEENS_9allocatorIcEEEEEC1B8ue170006ES8_, symObjAddr: 0x105A8, symBinAddr: 0x100010BD4, symSize: 0x34 }
  - { offsetInCU: 0x2741C, offset: 0x2741C, size: 0x8, addend: 0x0, symName: __ZNSt3__116allocator_traitsINS_9allocatorIPNS_12basic_stringIcNS_11char_traitsIcEENS1_IcEEEEEEE9constructB8ue170006IS7_JRKS7_EvEEvRS8_PT_DpOT0_, symObjAddr: 0x105DC, symBinAddr: 0x100010C08, symSize: 0x34 }
  - { offsetInCU: 0x2749B, offset: 0x2749B, size: 0x8, addend: 0x0, symName: __ZNKSt3__114__move_trivialclB8ue170006IPNS_12basic_stringIcNS_11char_traitsIcEENS_9allocatorIcEEEES8_Li0EEENS_4pairIPT_PT0_EESB_SB_SD_, symObjAddr: 0x107AC, symBinAddr: 0x100010DD8, symSize: 0x48 }
  - { offsetInCU: 0x27503, offset: 0x27503, size: 0x8, addend: 0x0, symName: __ZNSt3__14pairIPPNS_12basic_stringIcNS_11char_traitsIcEENS_9allocatorIcEEEES8_EC1B8ue170006ERKS8_SB_, symObjAddr: 0x10A24, symBinAddr: 0x100011050, symSize: 0x3C }
  - { offsetInCU: 0x27549, offset: 0x27549, size: 0x8, addend: 0x0, symName: __ZNSt3__14pairIPPNS_12basic_stringIcNS_11char_traitsIcEENS_9allocatorIcEEEES8_EC2B8ue170006ERKS8_SB_, symObjAddr: 0x10A60, symBinAddr: 0x10001108C, symSize: 0x34 }
  - { offsetInCU: 0x2758F, offset: 0x2758F, size: 0x8, addend: 0x0, symName: __ZNSt3__118__unwrap_iter_implIPPNS_12basic_stringIcNS_11char_traitsIcEENS_9allocatorIcEEEELb1EE8__unwrapB8ue170006ES8_, symObjAddr: 0x10A94, symBinAddr: 0x1000110C0, symSize: 0x24 }
  - { offsetInCU: 0x275B2, offset: 0x275B2, size: 0x8, addend: 0x0, symName: __ZNSt3__118__unwrap_iter_implIPPNS_12basic_stringIcNS_11char_traitsIcEENS_9allocatorIcEEEELb1EE8__rewrapB8ue170006ES8_S8_, symObjAddr: 0x10AB8, symBinAddr: 0x1000110E4, symSize: 0x50 }
  - { offsetInCU: 0x275E3, offset: 0x275E3, size: 0x8, addend: 0x0, symName: __ZNSt3__114__split_bufferIPNS_12basic_stringIcNS_11char_traitsIcEENS_9allocatorIcEEEERNS4_IS7_EEE28__construct_at_end_with_sizeINS_13move_iteratorIPS7_EEEEvT_m, symObjAddr: 0x10B08, symBinAddr: 0x100011134, symSize: 0xE4 }
  - { offsetInCU: 0x2764B, offset: 0x2764B, size: 0x8, addend: 0x0, symName: __ZNSt3__114__split_bufferIPNS_12basic_stringIcNS_11char_traitsIcEENS_9allocatorIcEEEERNS4_IS7_EEE21_ConstructTransactionC1B8ue170006EPPS7_m, symObjAddr: 0x10C28, symBinAddr: 0x100011254, symSize: 0x3C }
  - { offsetInCU: 0x27691, offset: 0x27691, size: 0x8, addend: 0x0, symName: __ZNSt3__116allocator_traitsINS_9allocatorIPNS_12basic_stringIcNS_11char_traitsIcEENS1_IcEEEEEEE9constructB8ue170006IS7_JS7_EvEEvRS8_PT_DpOT0_, symObjAddr: 0x10C64, symBinAddr: 0x100011290, symSize: 0x34 }
  - { offsetInCU: 0x276E8, offset: 0x276E8, size: 0x8, addend: 0x0, symName: __ZNSt3__114__split_bufferIPNS_12basic_stringIcNS_11char_traitsIcEENS_9allocatorIcEEEERNS4_IS7_EEE7__allocB8ue170006Ev, symObjAddr: 0x10C98, symBinAddr: 0x1000112C4, symSize: 0x28 }
  - { offsetInCU: 0x2770E, offset: 0x2770E, size: 0x8, addend: 0x0, symName: __ZNKSt3__113move_iteratorIPPNS_12basic_stringIcNS_11char_traitsIcEENS_9allocatorIcEEEEEdeB8ue170006Ev, symObjAddr: 0x10CC0, symBinAddr: 0x1000112EC, symSize: 0x18 }
  - { offsetInCU: 0x27734, offset: 0x27734, size: 0x8, addend: 0x0, symName: __ZNSt3__113move_iteratorIPPNS_12basic_stringIcNS_11char_traitsIcEENS_9allocatorIcEEEEEppB8ue170006Ev, symObjAddr: 0x10CD8, symBinAddr: 0x100011304, symSize: 0x20 }
  - { offsetInCU: 0x2775A, offset: 0x2775A, size: 0x8, addend: 0x0, symName: __ZNSt3__114__split_bufferIPNS_12basic_stringIcNS_11char_traitsIcEENS_9allocatorIcEEEERNS4_IS7_EEE21_ConstructTransactionD1B8ue170006Ev, symObjAddr: 0x10CF8, symBinAddr: 0x100011324, symSize: 0x2C }
  - { offsetInCU: 0x27784, offset: 0x27784, size: 0x8, addend: 0x0, symName: __ZNSt3__114__split_bufferIPNS_12basic_stringIcNS_11char_traitsIcEENS_9allocatorIcEEEERNS4_IS7_EEE21_ConstructTransactionC2B8ue170006EPPS7_m, symObjAddr: 0x10D24, symBinAddr: 0x100011350, symSize: 0x44 }
  - { offsetInCU: 0x277CA, offset: 0x277CA, size: 0x8, addend: 0x0, symName: __ZNSt3__19allocatorIPNS_12basic_stringIcNS_11char_traitsIcEENS0_IcEEEEE9constructB8ue170006IS6_JS6_EEEvPT_DpOT0_, symObjAddr: 0x10D68, symBinAddr: 0x100011394, symSize: 0x28 }
  - { offsetInCU: 0x27820, offset: 0x27820, size: 0x8, addend: 0x0, symName: __ZNSt3__117__compressed_pairIPPNS_12basic_stringIcNS_11char_traitsIcEENS_9allocatorIcEEEERNS4_IS7_EEE6secondB8ue170006Ev, symObjAddr: 0x10D90, symBinAddr: 0x1000113BC, symSize: 0x28 }
  - { offsetInCU: 0x27846, offset: 0x27846, size: 0x8, addend: 0x0, symName: __ZNSt3__122__compressed_pair_elemIRNS_9allocatorIPNS_12basic_stringIcNS_11char_traitsIcEENS1_IcEEEEEELi1ELb0EE5__getB8ue170006Ev, symObjAddr: 0x10DB8, symBinAddr: 0x1000113E4, symSize: 0x18 }
  - { offsetInCU: 0x2786C, offset: 0x2786C, size: 0x8, addend: 0x0, symName: __ZNSt3__114__split_bufferIPNS_12basic_stringIcNS_11char_traitsIcEENS_9allocatorIcEEEERNS4_IS7_EEE21_ConstructTransactionD2B8ue170006Ev, symObjAddr: 0x10DD0, symBinAddr: 0x1000113FC, symSize: 0x20 }
  - { offsetInCU: 0x27896, offset: 0x27896, size: 0x8, addend: 0x0, symName: __ZNKSt3__113move_iteratorIPPNS_12basic_stringIcNS_11char_traitsIcEENS_9allocatorIcEEEEE4baseB8ue170006Ev, symObjAddr: 0x10E68, symBinAddr: 0x100011494, symSize: 0x18 }
  - { offsetInCU: 0x278BC, offset: 0x278BC, size: 0x8, addend: 0x0, symName: __ZNSt3__113move_iteratorIPPNS_12basic_stringIcNS_11char_traitsIcEENS_9allocatorIcEEEEEC2B8ue170006ES8_, symObjAddr: 0x10E80, symBinAddr: 0x1000114AC, symSize: 0x20 }
  - { offsetInCU: 0x278F4, offset: 0x278F4, size: 0x8, addend: 0x0, symName: __ZNSt3__19allocatorIPNS_12basic_stringIcNS_11char_traitsIcEENS0_IcEEEEE9constructB8ue170006IS6_JRKS6_EEEvPT_DpOT0_, symObjAddr: 0x10EA0, symBinAddr: 0x1000114CC, symSize: 0x28 }
  - { offsetInCU: 0x2794A, offset: 0x2794A, size: 0x8, addend: 0x0, symName: __ZNSt3__19allocatorINS_12basic_stringIcNS_11char_traitsIcEENS0_IcEEEEE8allocateB8ue170006Em, symObjAddr: 0x10EC8, symBinAddr: 0x1000114F4, symSize: 0x8C }
  - { offsetInCU: 0x27989, offset: 0x27989, size: 0x8, addend: 0x0, symName: __ZNSt3__116allocator_traitsINS_9allocatorINS_12basic_stringIcNS_11char_traitsIcEENS1_IcEEEEEEE8max_sizeB8ue170006IS7_vEEmRKS7_, symObjAddr: 0x10F54, symBinAddr: 0x100011580, symSize: 0x24 }
  - { offsetInCU: 0x279B7, offset: 0x279B7, size: 0x8, addend: 0x0, symName: __ZNKSt3__19allocatorINS_12basic_stringIcNS_11char_traitsIcEENS0_IcEEEEE8max_sizeB8ue170006Ev, symObjAddr: 0x10F78, symBinAddr: 0x1000115A4, symSize: 0x18 }
  - { offsetInCU: 0x279E8, offset: 0x279E8, size: 0x8, addend: 0x0, symName: __ZNKSt3__123__move_backward_trivialclB8ue170006IPNS_12basic_stringIcNS_11char_traitsIcEENS_9allocatorIcEEEES8_Li0EEENS_4pairIPT_PT0_EESB_SB_SD_, symObjAddr: 0x1110C, symBinAddr: 0x100011738, symSize: 0x48 }
  - { offsetInCU: 0x27A50, offset: 0x27A50, size: 0x8, addend: 0x0, symName: __ZNSt3__114__split_bufferIPNS_12basic_stringIcNS_11char_traitsIcEENS_9allocatorIcEEEERNS4_IS7_EEEC2EmmS9_, symObjAddr: 0x1121C, symBinAddr: 0x100011848, symSize: 0xD4 }
  - { offsetInCU: 0x27AC3, offset: 0x27AC3, size: 0x8, addend: 0x0, symName: __ZNSt3__117__compressed_pairIPPNS_12basic_stringIcNS_11char_traitsIcEENS_9allocatorIcEEEERNS4_IS7_EEEC1B8ue170006IDnSA_EEOT_OT0_, symObjAddr: 0x112F0, symBinAddr: 0x10001191C, symSize: 0x3C }
  - { offsetInCU: 0x27B1B, offset: 0x27B1B, size: 0x8, addend: 0x0, symName: __ZNSt3__117__compressed_pairIPPNS_12basic_stringIcNS_11char_traitsIcEENS_9allocatorIcEEEERNS4_IS7_EEEC2B8ue170006IDnSA_EEOT_OT0_, symObjAddr: 0x1136C, symBinAddr: 0x100011998, symSize: 0x48 }
  - { offsetInCU: 0x27B73, offset: 0x27B73, size: 0x8, addend: 0x0, symName: __ZNSt3__122__compressed_pair_elemIRNS_9allocatorIPNS_12basic_stringIcNS_11char_traitsIcEENS1_IcEEEEEELi1ELb0EEC2B8ue170006IS9_vEEOT_, symObjAddr: 0x113B4, symBinAddr: 0x1000119E0, symSize: 0x20 }
  - { offsetInCU: 0x27BB5, offset: 0x27BB5, size: 0x8, addend: 0x0, symName: __ZNSt3__19allocatorIPNS_12basic_stringIcNS_11char_traitsIcEENS0_IcEEEEE8allocateB8ue170006Em, symObjAddr: 0x113D4, symBinAddr: 0x100011A00, symSize: 0x84 }
  - { offsetInCU: 0x27BF4, offset: 0x27BF4, size: 0x8, addend: 0x0, symName: __ZNSt3__116allocator_traitsINS_9allocatorIPNS_12basic_stringIcNS_11char_traitsIcEENS1_IcEEEEEEE8max_sizeB8ue170006IS8_vEEmRKS8_, symObjAddr: 0x11458, symBinAddr: 0x100011A84, symSize: 0x24 }
  - { offsetInCU: 0x27C22, offset: 0x27C22, size: 0x8, addend: 0x0, symName: __ZNKSt3__19allocatorIPNS_12basic_stringIcNS_11char_traitsIcEENS0_IcEEEEE8max_sizeB8ue170006Ev, symObjAddr: 0x1147C, symBinAddr: 0x100011AA8, symSize: 0x14 }
  - { offsetInCU: 0x27C48, offset: 0x27C48, size: 0x8, addend: 0x0, symName: __ZNSt3__122__allocator_destructorINS_9allocatorINS_12basic_stringIcNS_11char_traitsIcEENS1_IcEEEEEEEC2B8ue170006ERS7_m, symObjAddr: 0x11490, symBinAddr: 0x100011ABC, symSize: 0x2C }
  - { offsetInCU: 0x27C8E, offset: 0x27C8E, size: 0x8, addend: 0x0, symName: __ZNSt3__110unique_ptrIPNS_12basic_stringIcNS_11char_traitsIcEENS_9allocatorIcEEEENS_22__allocator_destructorINS4_IS6_EEEEEC2B8ue170006ILb1EvEES7_NS_16__dependent_typeINS_27__unique_ptr_deleter_sfinaeISA_EEXT_EE20__good_rval_ref_typeE, symObjAddr: 0x114BC, symBinAddr: 0x100011AE8, symSize: 0x5C }
  - { offsetInCU: 0x27CDF, offset: 0x27CDF, size: 0x8, addend: 0x0, symName: __ZNSt3__117__compressed_pairIPNS_12basic_stringIcNS_11char_traitsIcEENS_9allocatorIcEEEENS_22__allocator_destructorINS4_IS6_EEEEEC1B8ue170006IRS7_SA_EEOT_OT0_, symObjAddr: 0x11518, symBinAddr: 0x100011B44, symSize: 0x3C }
  - { offsetInCU: 0x27D37, offset: 0x27D37, size: 0x8, addend: 0x0, symName: __ZNSt3__117__compressed_pairIPNS_12basic_stringIcNS_11char_traitsIcEENS_9allocatorIcEEEENS_22__allocator_destructorINS4_IS6_EEEEEC2B8ue170006IRS7_SA_EEOT_OT0_, symObjAddr: 0x11554, symBinAddr: 0x100011B80, symSize: 0x48 }
  - { offsetInCU: 0x27D8F, offset: 0x27D8F, size: 0x8, addend: 0x0, symName: __ZNSt3__122__compressed_pair_elemIPNS_12basic_stringIcNS_11char_traitsIcEENS_9allocatorIcEEEELi0ELb0EEC2B8ue170006IRS7_vEEOT_, symObjAddr: 0x1159C, symBinAddr: 0x100011BC8, symSize: 0x24 }
  - { offsetInCU: 0x27DD1, offset: 0x27DD1, size: 0x8, addend: 0x0, symName: __ZNSt3__122__compressed_pair_elemINS_22__allocator_destructorINS_9allocatorINS_12basic_stringIcNS_11char_traitsIcEENS2_IcEEEEEEEELi1ELb0EEC2B8ue170006IS9_vEEOT_, symObjAddr: 0x115C0, symBinAddr: 0x100011BEC, symSize: 0x24 }
  - { offsetInCU: 0x27E13, offset: 0x27E13, size: 0x8, addend: 0x0, symName: __ZNKSt3__117__compressed_pairIPNS_12basic_stringIcNS_11char_traitsIcEENS_9allocatorIcEEEENS_22__allocator_destructorINS4_IS6_EEEEE5firstB8ue170006Ev, symObjAddr: 0x115E4, symBinAddr: 0x100011C10, symSize: 0x24 }
  - { offsetInCU: 0x27E39, offset: 0x27E39, size: 0x8, addend: 0x0, symName: __ZNKSt3__122__compressed_pair_elemIPNS_12basic_stringIcNS_11char_traitsIcEENS_9allocatorIcEEEELi0ELb0EE5__getB8ue170006Ev, symObjAddr: 0x11608, symBinAddr: 0x100011C34, symSize: 0x14 }
  - { offsetInCU: 0x27E5F, offset: 0x27E5F, size: 0x8, addend: 0x0, symName: __ZNSt3__117__compressed_pairIPNS_12basic_stringIcNS_11char_traitsIcEENS_9allocatorIcEEEENS_22__allocator_destructorINS4_IS6_EEEEE5firstB8ue170006Ev, symObjAddr: 0x1161C, symBinAddr: 0x100011C48, symSize: 0x24 }
  - { offsetInCU: 0x27E85, offset: 0x27E85, size: 0x8, addend: 0x0, symName: __ZNSt3__122__compressed_pair_elemIPNS_12basic_stringIcNS_11char_traitsIcEENS_9allocatorIcEEEELi0ELb0EE5__getB8ue170006Ev, symObjAddr: 0x11640, symBinAddr: 0x100011C6C, symSize: 0x14 }
  - { offsetInCU: 0x27EAB, offset: 0x27EAB, size: 0x8, addend: 0x0, symName: __ZNSt3__117__compressed_pairIPPNS_12basic_stringIcNS_11char_traitsIcEENS_9allocatorIcEEEENS4_IS7_EEE5firstB8ue170006Ev, symObjAddr: 0x11654, symBinAddr: 0x100011C80, symSize: 0x24 }
  - { offsetInCU: 0x27ED1, offset: 0x27ED1, size: 0x8, addend: 0x0, symName: __ZNSt3__122__compressed_pair_elemIPPNS_12basic_stringIcNS_11char_traitsIcEENS_9allocatorIcEEEELi0ELb0EE5__getB8ue170006Ev, symObjAddr: 0x11678, symBinAddr: 0x100011CA4, symSize: 0x14 }
  - { offsetInCU: 0x27EF7, offset: 0x27EF7, size: 0x8, addend: 0x0, symName: __ZNSt3__117__compressed_pairIPPNS_12basic_stringIcNS_11char_traitsIcEENS_9allocatorIcEEEERNS4_IS7_EEE5firstB8ue170006Ev, symObjAddr: 0x1168C, symBinAddr: 0x100011CB8, symSize: 0x24 }
  - { offsetInCU: 0x27F1D, offset: 0x27F1D, size: 0x8, addend: 0x0, symName: __ZNSt3__110unique_ptrIPNS_12basic_stringIcNS_11char_traitsIcEENS_9allocatorIcEEEENS_22__allocator_destructorINS4_IS6_EEEEED2B8ue170006Ev, symObjAddr: 0x116B0, symBinAddr: 0x100011CDC, symSize: 0x30 }
  - { offsetInCU: 0x27F47, offset: 0x27F47, size: 0x8, addend: 0x0, symName: __ZNSt3__110unique_ptrIPNS_12basic_stringIcNS_11char_traitsIcEENS_9allocatorIcEEEENS_22__allocator_destructorINS4_IS6_EEEEE5resetB8ue170006ES7_, symObjAddr: 0x116E0, symBinAddr: 0x100011D0C, symSize: 0x78 }
  - { offsetInCU: 0x27F8B, offset: 0x27F8B, size: 0x8, addend: 0x0, symName: __ZNSt3__117__compressed_pairIPNS_12basic_stringIcNS_11char_traitsIcEENS_9allocatorIcEEEENS_22__allocator_destructorINS4_IS6_EEEEE6secondB8ue170006Ev, symObjAddr: 0x11758, symBinAddr: 0x100011D84, symSize: 0x28 }
  - { offsetInCU: 0x27FB1, offset: 0x27FB1, size: 0x8, addend: 0x0, symName: __ZNSt3__122__allocator_destructorINS_9allocatorINS_12basic_stringIcNS_11char_traitsIcEENS1_IcEEEEEEEclB8ue170006EPS6_, symObjAddr: 0x11780, symBinAddr: 0x100011DAC, symSize: 0x34 }
  - { offsetInCU: 0x27FE5, offset: 0x27FE5, size: 0x8, addend: 0x0, symName: __ZNSt3__122__compressed_pair_elemINS_22__allocator_destructorINS_9allocatorINS_12basic_stringIcNS_11char_traitsIcEENS2_IcEEEEEEEELi1ELb0EE5__getB8ue170006Ev, symObjAddr: 0x117B4, symBinAddr: 0x100011DE0, symSize: 0x14 }
  - { offsetInCU: 0x2800B, offset: 0x2800B, size: 0x8, addend: 0x0, symName: __ZNSt3__114__split_bufferIPNS_12basic_stringIcNS_11char_traitsIcEENS_9allocatorIcEEEERNS4_IS7_EEED2Ev, symObjAddr: 0x117C8, symBinAddr: 0x100011DF4, symSize: 0x80 }
  - { offsetInCU: 0x28037, offset: 0x28037, size: 0x8, addend: 0x0, symName: __ZNSt3__114__split_bufferIPNS_12basic_stringIcNS_11char_traitsIcEENS_9allocatorIcEEEERNS4_IS7_EEE5clearB8ue170006Ev, symObjAddr: 0x11848, symBinAddr: 0x100011E74, symSize: 0x28 }
  - { offsetInCU: 0x2805D, offset: 0x2805D, size: 0x8, addend: 0x0, symName: __ZNKSt3__114__split_bufferIPNS_12basic_stringIcNS_11char_traitsIcEENS_9allocatorIcEEEERNS4_IS7_EEE8capacityB8ue170006Ev, symObjAddr: 0x11870, symBinAddr: 0x100011E9C, symSize: 0x40 }
  - { offsetInCU: 0x28083, offset: 0x28083, size: 0x8, addend: 0x0, symName: __ZNSt3__114__split_bufferIPNS_12basic_stringIcNS_11char_traitsIcEENS_9allocatorIcEEEERNS4_IS7_EEE17__destruct_at_endB8ue170006EPS7_, symObjAddr: 0x118B0, symBinAddr: 0x100011EDC, symSize: 0x2C }
  - { offsetInCU: 0x280B7, offset: 0x280B7, size: 0x8, addend: 0x0, symName: __ZNSt3__114__split_bufferIPNS_12basic_stringIcNS_11char_traitsIcEENS_9allocatorIcEEEERNS4_IS7_EEE17__destruct_at_endB8ue170006EPS7_NS_17integral_constantIbLb0EEE, symObjAddr: 0x118DC, symBinAddr: 0x100011F08, symSize: 0x94 }
  - { offsetInCU: 0x280F7, offset: 0x280F7, size: 0x8, addend: 0x0, symName: __ZNKSt3__114__split_bufferIPNS_12basic_stringIcNS_11char_traitsIcEENS_9allocatorIcEEEERNS4_IS7_EEE9__end_capB8ue170006Ev, symObjAddr: 0x11970, symBinAddr: 0x100011F9C, symSize: 0x28 }
  - { offsetInCU: 0x2811D, offset: 0x2811D, size: 0x8, addend: 0x0, symName: __ZNKSt3__117__compressed_pairIPPNS_12basic_stringIcNS_11char_traitsIcEENS_9allocatorIcEEEERNS4_IS7_EEE5firstB8ue170006Ev, symObjAddr: 0x11998, symBinAddr: 0x100011FC4, symSize: 0x24 }
  - { offsetInCU: 0x28143, offset: 0x28143, size: 0x8, addend: 0x0, symName: __ZNSt3__19allocatorINS_12basic_stringIcNS_11char_traitsIcEENS0_IcEEEEE9constructB8ue170006IS5_JRKS5_EEEvPT_DpOT0_, symObjAddr: 0x119BC, symBinAddr: 0x100011FE8, symSize: 0x30 }
  - { offsetInCU: 0x28199, offset: 0x28199, size: 0x8, addend: 0x0, symName: __ZNKSt3__114__split_bufferIPNS_12basic_stringIcNS_11char_traitsIcEENS_9allocatorIcEEEENS4_IS7_EEE5emptyB8ue170006Ev, symObjAddr: 0x119EC, symBinAddr: 0x100012018, symSize: 0x28 }
  - { offsetInCU: 0x281BF, offset: 0x281BF, size: 0x8, addend: 0x0, symName: __ZNSt3__116__deque_iteratorINS_12basic_stringIcNS_11char_traitsIcEENS_9allocatorIcEEEEPS6_RS6_PS7_lLl170EEC1B8ue170006ES9_S7_, symObjAddr: 0x11A14, symBinAddr: 0x100012040, symSize: 0x3C }
  - { offsetInCU: 0x28207, offset: 0x28207, size: 0x8, addend: 0x0, symName: __ZNSt3__116__deque_iteratorINS_12basic_stringIcNS_11char_traitsIcEENS_9allocatorIcEEEEPS6_RS6_PS7_lLl170EEC2B8ue170006ES9_S7_, symObjAddr: 0x11A50, symBinAddr: 0x10001207C, symSize: 0x2C }
  - { offsetInCU: 0x2824F, offset: 0x2824F, size: 0x8, addend: 0x0, symName: __ZNSt3__15stackIiNS_5dequeIiNS_9allocatorIiEEEEEC2B8ue170006Ev, symObjAddr: 0x11A7C, symBinAddr: 0x1000120A8, symSize: 0x2C }
  - { offsetInCU: 0x28279, offset: 0x28279, size: 0x8, addend: 0x0, symName: __ZNSt3__15dequeIiNS_9allocatorIiEEEC1B8ue170006Ev, symObjAddr: 0x11AA8, symBinAddr: 0x1000120D4, symSize: 0x2C }
  - { offsetInCU: 0x282A3, offset: 0x282A3, size: 0x8, addend: 0x0, symName: __ZNSt3__15dequeIiNS_9allocatorIiEEEC2B8ue170006Ev, symObjAddr: 0x11AD4, symBinAddr: 0x100012100, symSize: 0x84 }
  - { offsetInCU: 0x282CD, offset: 0x282CD, size: 0x8, addend: 0x0, symName: __ZNSt3__114__split_bufferIPiNS_9allocatorIS1_EEEC1B8ue170006Ev, symObjAddr: 0x11B58, symBinAddr: 0x100012184, symSize: 0x2C }
  - { offsetInCU: 0x282F7, offset: 0x282F7, size: 0x8, addend: 0x0, symName: __ZNSt3__117__compressed_pairImNS_9allocatorIiEEEC1B8ue170006IiNS_18__default_init_tagEEEOT_OT0_, symObjAddr: 0x11B84, symBinAddr: 0x1000121B0, symSize: 0x3C }
  - { offsetInCU: 0x2834F, offset: 0x2834F, size: 0x8, addend: 0x0, symName: __ZNKSt3__15dequeIiNS_9allocatorIiEEE14__annotate_newB8ue170006Em, symObjAddr: 0x11BC0, symBinAddr: 0x1000121EC, symSize: 0xDC }
  - { offsetInCU: 0x28384, offset: 0x28384, size: 0x8, addend: 0x0, symName: __ZNSt3__114__split_bufferIPiNS_9allocatorIS1_EEED1Ev, symObjAddr: 0x11C9C, symBinAddr: 0x1000122C8, symSize: 0x2C }
  - { offsetInCU: 0x283B0, offset: 0x283B0, size: 0x8, addend: 0x0, symName: __ZNSt3__114__split_bufferIPiNS_9allocatorIS1_EEEC2B8ue170006Ev, symObjAddr: 0x11CC8, symBinAddr: 0x1000122F4, symSize: 0x48 }
  - { offsetInCU: 0x283DA, offset: 0x283DA, size: 0x8, addend: 0x0, symName: __ZNSt3__117__compressed_pairIPPiNS_9allocatorIS1_EEEC1B8ue170006IDnNS_18__default_init_tagEEEOT_OT0_, symObjAddr: 0x11D10, symBinAddr: 0x10001233C, symSize: 0x3C }
  - { offsetInCU: 0x28432, offset: 0x28432, size: 0x8, addend: 0x0, symName: __ZNSt3__117__compressed_pairIPPiNS_9allocatorIS1_EEEC2B8ue170006IDnNS_18__default_init_tagEEEOT_OT0_, symObjAddr: 0x11D4C, symBinAddr: 0x100012378, symSize: 0x40 }
  - { offsetInCU: 0x2848A, offset: 0x2848A, size: 0x8, addend: 0x0, symName: __ZNSt3__122__compressed_pair_elemIPPiLi0ELb0EEC2B8ue170006IDnvEEOT_, symObjAddr: 0x11D8C, symBinAddr: 0x1000123B8, symSize: 0x1C }
  - { offsetInCU: 0x284CC, offset: 0x284CC, size: 0x8, addend: 0x0, symName: __ZNSt3__122__compressed_pair_elemINS_9allocatorIPiEELi1ELb1EEC2B8ue170006ENS_18__default_init_tagE, symObjAddr: 0x11DA8, symBinAddr: 0x1000123D4, symSize: 0x2C }
  - { offsetInCU: 0x28500, offset: 0x28500, size: 0x8, addend: 0x0, symName: __ZNSt3__19allocatorIPiEC2B8ue170006Ev, symObjAddr: 0x11DD4, symBinAddr: 0x100012400, symSize: 0x2C }
  - { offsetInCU: 0x2852A, offset: 0x2852A, size: 0x8, addend: 0x0, symName: __ZNSt3__116__non_trivial_ifILb1ENS_9allocatorIPiEEEC2B8ue170006Ev, symObjAddr: 0x11E00, symBinAddr: 0x10001242C, symSize: 0x14 }
  - { offsetInCU: 0x28554, offset: 0x28554, size: 0x8, addend: 0x0, symName: __ZNSt3__117__compressed_pairImNS_9allocatorIiEEEC2B8ue170006IiNS_18__default_init_tagEEEOT_OT0_, symObjAddr: 0x11E14, symBinAddr: 0x100012440, symSize: 0x40 }
  - { offsetInCU: 0x285AC, offset: 0x285AC, size: 0x8, addend: 0x0, symName: __ZNSt3__122__compressed_pair_elemINS_9allocatorIiEELi1ELb1EEC2B8ue170006ENS_18__default_init_tagE, symObjAddr: 0x11E54, symBinAddr: 0x100012480, symSize: 0x2C }
  - { offsetInCU: 0x285E0, offset: 0x285E0, size: 0x8, addend: 0x0, symName: __ZNSt3__19allocatorIiEC2B8ue170006Ev, symObjAddr: 0x11E80, symBinAddr: 0x1000124AC, symSize: 0x2C }
  - { offsetInCU: 0x2860A, offset: 0x2860A, size: 0x8, addend: 0x0, symName: __ZNSt3__116__non_trivial_ifILb1ENS_9allocatorIiEEEC2B8ue170006Ev, symObjAddr: 0x11EAC, symBinAddr: 0x1000124D8, symSize: 0x14 }
  - { offsetInCU: 0x28634, offset: 0x28634, size: 0x8, addend: 0x0, symName: __ZNKSt3__15dequeIiNS_9allocatorIiEEE18__annotate_from_toB8ue170006EmmNS3_22__asan_annotation_typeENS3_23__asan_annotation_placeE, symObjAddr: 0x11EC0, symBinAddr: 0x1000124EC, symSize: 0x580 }
  - { offsetInCU: 0x287F0, offset: 0x287F0, size: 0x8, addend: 0x0, symName: __ZNKSt3__114__split_bufferIPiNS_9allocatorIS1_EEE4sizeB8ue170006Ev, symObjAddr: 0x12440, symBinAddr: 0x100012A6C, symSize: 0x28 }
  - { offsetInCU: 0x28816, offset: 0x28816, size: 0x8, addend: 0x0, symName: __ZNKSt3__114__split_bufferIPiNS_9allocatorIS1_EEE5beginB8ue170006Ev, symObjAddr: 0x12468, symBinAddr: 0x100012A94, symSize: 0x18 }
  - { offsetInCU: 0x2883C, offset: 0x2883C, size: 0x8, addend: 0x0, symName: __ZNKSt3__15dequeIiNS_9allocatorIiEEE4sizeB8ue170006Ev, symObjAddr: 0x12480, symBinAddr: 0x100012AAC, symSize: 0x28 }
  - { offsetInCU: 0x28862, offset: 0x28862, size: 0x8, addend: 0x0, symName: __ZNKSt3__15dequeIiNS_9allocatorIiEEE5emptyB8ue170006Ev, symObjAddr: 0x124A8, symBinAddr: 0x100012AD4, symSize: 0x30 }
  - { offsetInCU: 0x28888, offset: 0x28888, size: 0x8, addend: 0x0, symName: __ZNKSt3__15dequeIiNS_9allocatorIiEEE44__annotate_double_ended_contiguous_containerB8ue170006EPKvS5_S5_S5_S5_S5_, symObjAddr: 0x124EC, symBinAddr: 0x100012B18, symSize: 0x28 }
  - { offsetInCU: 0x288F0, offset: 0x288F0, size: 0x8, addend: 0x0, symName: __ZNKSt3__15dequeIiNS_9allocatorIiEEE6__sizeB8ue170006Ev, symObjAddr: 0x12514, symBinAddr: 0x100012B40, symSize: 0x28 }
  - { offsetInCU: 0x28916, offset: 0x28916, size: 0x8, addend: 0x0, symName: __ZNKSt3__117__compressed_pairImNS_9allocatorIiEEE5firstB8ue170006Ev, symObjAddr: 0x1253C, symBinAddr: 0x100012B68, symSize: 0x24 }
  - { offsetInCU: 0x2893C, offset: 0x2893C, size: 0x8, addend: 0x0, symName: __ZNSt3__114__split_bufferIPiNS_9allocatorIS1_EEED2Ev, symObjAddr: 0x12560, symBinAddr: 0x100012B8C, symSize: 0x80 }
  - { offsetInCU: 0x28968, offset: 0x28968, size: 0x8, addend: 0x0, symName: __ZNSt3__114__split_bufferIPiNS_9allocatorIS1_EEE5clearB8ue170006Ev, symObjAddr: 0x125E0, symBinAddr: 0x100012C0C, symSize: 0x28 }
  - { offsetInCU: 0x2898E, offset: 0x2898E, size: 0x8, addend: 0x0, symName: __ZNSt3__116allocator_traitsINS_9allocatorIPiEEE10deallocateB8ue170006ERS3_PS2_m, symObjAddr: 0x12608, symBinAddr: 0x100012C34, symSize: 0x34 }
  - { offsetInCU: 0x289D0, offset: 0x289D0, size: 0x8, addend: 0x0, symName: __ZNSt3__114__split_bufferIPiNS_9allocatorIS1_EEE7__allocB8ue170006Ev, symObjAddr: 0x1263C, symBinAddr: 0x100012C68, symSize: 0x28 }
  - { offsetInCU: 0x289F6, offset: 0x289F6, size: 0x8, addend: 0x0, symName: __ZNKSt3__114__split_bufferIPiNS_9allocatorIS1_EEE8capacityB8ue170006Ev, symObjAddr: 0x12664, symBinAddr: 0x100012C90, symSize: 0x40 }
  - { offsetInCU: 0x28A1C, offset: 0x28A1C, size: 0x8, addend: 0x0, symName: __ZNSt3__114__split_bufferIPiNS_9allocatorIS1_EEE17__destruct_at_endB8ue170006EPS1_, symObjAddr: 0x126A4, symBinAddr: 0x100012CD0, symSize: 0x2C }
  - { offsetInCU: 0x28A50, offset: 0x28A50, size: 0x8, addend: 0x0, symName: __ZNSt3__114__split_bufferIPiNS_9allocatorIS1_EEE17__destruct_at_endB8ue170006EPS1_NS_17integral_constantIbLb0EEE, symObjAddr: 0x126D0, symBinAddr: 0x100012CFC, symSize: 0x94 }
  - { offsetInCU: 0x28A90, offset: 0x28A90, size: 0x8, addend: 0x0, symName: __ZNSt3__116allocator_traitsINS_9allocatorIPiEEE7destroyB8ue170006IS2_vEEvRS3_PT_, symObjAddr: 0x12764, symBinAddr: 0x100012D90, symSize: 0x2C }
  - { offsetInCU: 0x28ACD, offset: 0x28ACD, size: 0x8, addend: 0x0, symName: __ZNSt3__19allocatorIPiE7destroyB8ue170006EPS1_, symObjAddr: 0x127A4, symBinAddr: 0x100012DD0, symSize: 0x14 }
  - { offsetInCU: 0x28B01, offset: 0x28B01, size: 0x8, addend: 0x0, symName: __ZNSt3__19allocatorIPiE10deallocateB8ue170006EPS1_m, symObjAddr: 0x127B8, symBinAddr: 0x100012DE4, symSize: 0x70 }
  - { offsetInCU: 0x28B43, offset: 0x28B43, size: 0x8, addend: 0x0, symName: __ZNSt3__117__compressed_pairIPPiNS_9allocatorIS1_EEE6secondB8ue170006Ev, symObjAddr: 0x12828, symBinAddr: 0x100012E54, symSize: 0x24 }
  - { offsetInCU: 0x28B69, offset: 0x28B69, size: 0x8, addend: 0x0, symName: __ZNSt3__122__compressed_pair_elemINS_9allocatorIPiEELi1ELb1EE5__getB8ue170006Ev, symObjAddr: 0x1284C, symBinAddr: 0x100012E78, symSize: 0x14 }
  - { offsetInCU: 0x28B8F, offset: 0x28B8F, size: 0x8, addend: 0x0, symName: __ZNKSt3__114__split_bufferIPiNS_9allocatorIS1_EEE9__end_capB8ue170006Ev, symObjAddr: 0x12860, symBinAddr: 0x100012E8C, symSize: 0x28 }
  - { offsetInCU: 0x28BB5, offset: 0x28BB5, size: 0x8, addend: 0x0, symName: __ZNKSt3__117__compressed_pairIPPiNS_9allocatorIS1_EEE5firstB8ue170006Ev, symObjAddr: 0x12888, symBinAddr: 0x100012EB4, symSize: 0x24 }
  - { offsetInCU: 0x28BDB, offset: 0x28BDB, size: 0x8, addend: 0x0, symName: __ZNKSt3__122__compressed_pair_elemIPPiLi0ELb0EE5__getB8ue170006Ev, symObjAddr: 0x128AC, symBinAddr: 0x100012ED8, symSize: 0x14 }
  - { offsetInCU: 0x28C01, offset: 0x28C01, size: 0x8, addend: 0x0, symName: __ZNSt3__19basic_iosIcNS_11char_traitsIcEEEC2B8ue170006Ev, symObjAddr: 0x128C0, symBinAddr: 0x100012EEC, symSize: 0x44 }
  - { offsetInCU: 0x28C2B, offset: 0x28C2B, size: 0x8, addend: 0x0, symName: __ZNSt3__113basic_istreamIcNS_11char_traitsIcEEEC2B8ue170006EPNS_15basic_streambufIcS2_EE, symObjAddr: 0x12904, symBinAddr: 0x100012F30, symSize: 0x64 }
  - { offsetInCU: 0x28C70, offset: 0x28C70, size: 0x8, addend: 0x0, symName: __ZNSt3__115basic_stringbufIcNS_11char_traitsIcEENS_9allocatorIcEEEC1B8ue170006ERKNS_12basic_stringIcS2_S4_EEj, symObjAddr: 0x12968, symBinAddr: 0x100012F94, symSize: 0x3C }
  - { offsetInCU: 0x28CB8, offset: 0x28CB8, size: 0x8, addend: 0x0, symName: __ZNSt3__18ios_baseC2B8ue170006Ev, symObjAddr: 0x129A4, symBinAddr: 0x100012FD0, symSize: 0x24 }
  - { offsetInCU: 0x28CE2, offset: 0x28CE2, size: 0x8, addend: 0x0, symName: __ZNSt3__19basic_iosIcNS_11char_traitsIcEEE4initB8ue170006EPNS_15basic_streambufIcS2_EE, symObjAddr: 0x129C8, symBinAddr: 0x100012FF4, symSize: 0x44 }
  - { offsetInCU: 0x28D19, offset: 0x28D19, size: 0x8, addend: 0x0, symName: __ZNSt3__111char_traitsIcE3eofB8ue170006Ev, symObjAddr: 0x12A0C, symBinAddr: 0x100013038, symSize: 0x8 }
  - { offsetInCU: 0x28D2D, offset: 0x28D2D, size: 0x8, addend: 0x0, symName: __ZNSt3__115basic_stringbufIcNS_11char_traitsIcEENS_9allocatorIcEEEC2B8ue170006ERKNS_12basic_stringIcS2_S4_EEj, symObjAddr: 0x12A14, symBinAddr: 0x100013040, symSize: 0xD8 }
  - { offsetInCU: 0x28D75, offset: 0x28D75, size: 0x8, addend: 0x0, symName: __ZNSt3__112basic_stringIcNS_11char_traitsIcEENS_9allocatorIcEEEC1B8ue170006ERKS4_, symObjAddr: 0x12AEC, symBinAddr: 0x100013118, symSize: 0x34 }
  - { offsetInCU: 0x28DAE, offset: 0x28DAE, size: 0x8, addend: 0x0, symName: __ZNSt3__112basic_stringIcNS_11char_traitsIcEENS_9allocatorIcEEEC2B8ue170006ERKS4_, symObjAddr: 0x12B20, symBinAddr: 0x10001314C, symSize: 0x40 }
  - { offsetInCU: 0x28DE7, offset: 0x28DE7, size: 0x8, addend: 0x0, symName: __ZNSt3__112basic_stringIcNS_11char_traitsIcEENS_9allocatorIcEEE14__default_initB8ue170006Ev, symObjAddr: 0x12B60, symBinAddr: 0x10001318C, symSize: 0xB0 }
  - { offsetInCU: 0x28E5C, offset: 0x28E5C, size: 0x8, addend: 0x0, symName: __ZNKSt3__113basic_istreamIcNS_11char_traitsIcEEE6sentrycvbB8ue170006Ev, symObjAddr: 0x12C10, symBinAddr: 0x10001323C, symSize: 0x1C }
  - { offsetInCU: 0x28E82, offset: 0x28E82, size: 0x8, addend: 0x0, symName: __ZNKSt3__18ios_base5widthB8ue170006Ev, symObjAddr: 0x12C2C, symBinAddr: 0x100013258, symSize: 0x18 }
  - { offsetInCU: 0x28EAA, offset: 0x28EAA, size: 0x8, addend: 0x0, symName: __ZNKSt3__19basic_iosIcNS_11char_traitsIcEEE5rdbufB8ue170006Ev, symObjAddr: 0x12C70, symBinAddr: 0x10001329C, symSize: 0x24 }
  - { offsetInCU: 0x28ED2, offset: 0x28ED2, size: 0x8, addend: 0x0, symName: __ZNSt3__115basic_streambufIcNS_11char_traitsIcEEE5sgetcB8ue170006Ev, symObjAddr: 0x12C94, symBinAddr: 0x1000132C0, symSize: 0x70 }
  - { offsetInCU: 0x28EF8, offset: 0x28EF8, size: 0x8, addend: 0x0, symName: __ZNSt3__111char_traitsIcE11eq_int_typeB8ue170006Eii, symObjAddr: 0x12D04, symBinAddr: 0x100013330, symSize: 0x28 }
  - { offsetInCU: 0x28F2B, offset: 0x28F2B, size: 0x8, addend: 0x0, symName: __ZNSt3__111char_traitsIcE12to_char_typeB8ue170006Ei, symObjAddr: 0x12D2C, symBinAddr: 0x100013358, symSize: 0x18 }
  - { offsetInCU: 0x28F7C, offset: 0x28F7C, size: 0x8, addend: 0x0, symName: __ZNKSt3__15ctypeIcE2isB8ue170006Ejc, symObjAddr: 0x12D44, symBinAddr: 0x100013370, symSize: 0x7C }
  - { offsetInCU: 0x28FC0, offset: 0x28FC0, size: 0x8, addend: 0x0, symName: __ZNSt3__115basic_streambufIcNS_11char_traitsIcEEE6sbumpcB8ue170006Ev, symObjAddr: 0x12DC0, symBinAddr: 0x1000133EC, symSize: 0x78 }
  - { offsetInCU: 0x28FE6, offset: 0x28FE6, size: 0x8, addend: 0x0, symName: __ZNSt3__18ios_base5widthB8ue170006El, symObjAddr: 0x12E38, symBinAddr: 0x100013464, symSize: 0x2C }
  - { offsetInCU: 0x2902C, offset: 0x2902C, size: 0x8, addend: 0x0, symName: __ZNSt3__18ios_base18__setstate_nothrowB8ue170006Ej, symObjAddr: 0x12E64, symBinAddr: 0x100013490, symSize: 0x64 }
  - { offsetInCU: 0x29061, offset: 0x29061, size: 0x8, addend: 0x0, symName: __ZNKSt3__19basic_iosIcNS_11char_traitsIcEEE10exceptionsB8ue170006Ev, symObjAddr: 0x12EC8, symBinAddr: 0x1000134F4, symSize: 0x24 }
  - { offsetInCU: 0x29087, offset: 0x29087, size: 0x8, addend: 0x0, symName: __ZNSt3__19basic_iosIcNS_11char_traitsIcEEE8setstateB8ue170006Ej, symObjAddr: 0x12EEC, symBinAddr: 0x100013518, symSize: 0x2C }
  - { offsetInCU: 0x290BC, offset: 0x290BC, size: 0x8, addend: 0x0, symName: __ZNKSt3__18ios_base5rdbufB8ue170006Ev, symObjAddr: 0x12F18, symBinAddr: 0x100013544, symSize: 0x18 }
  - { offsetInCU: 0x290E2, offset: 0x290E2, size: 0x8, addend: 0x0, symName: __ZNSt3__111char_traitsIcE11to_int_typeB8ue170006Ec, symObjAddr: 0x12F30, symBinAddr: 0x10001355C, symSize: 0x14 }
  - { offsetInCU: 0x29105, offset: 0x29105, size: 0x8, addend: 0x0, symName: __Z7isasciii, symObjAddr: 0x12F44, symBinAddr: 0x100013570, symSize: 0x24 }
  - { offsetInCU: 0x29132, offset: 0x29132, size: 0x8, addend: 0x0, symName: __ZNKSt3__18ios_base10exceptionsB8ue170006Ev, symObjAddr: 0x12F68, symBinAddr: 0x100013594, symSize: 0x18 }
  - { offsetInCU: 0x2915A, offset: 0x2915A, size: 0x8, addend: 0x0, symName: __ZNSt3__18ios_base8setstateB8ue170006Ej, symObjAddr: 0x12F80, symBinAddr: 0x1000135AC, symSize: 0x34 }
  - { offsetInCU: 0x29191, offset: 0x29191, size: 0x8, addend: 0x0, symName: __ZNSt3__15dequeIiNS_9allocatorIiEEE9push_backERKi, symObjAddr: 0x12FB4, symBinAddr: 0x1000135E0, symSize: 0xAC }
  - { offsetInCU: 0x291D7, offset: 0x291D7, size: 0x8, addend: 0x0, symName: __ZNSt3__15dequeIiNS_9allocatorIiEEE7__allocB8ue170006Ev, symObjAddr: 0x13060, symBinAddr: 0x10001368C, symSize: 0x28 }
  - { offsetInCU: 0x291FD, offset: 0x291FD, size: 0x8, addend: 0x0, symName: __ZNKSt3__15dequeIiNS_9allocatorIiEEE12__back_spareB8ue170006Ev, symObjAddr: 0x13088, symBinAddr: 0x1000136B4, symSize: 0x54 }
  - { offsetInCU: 0x29223, offset: 0x29223, size: 0x8, addend: 0x0, symName: __ZNSt3__15dequeIiNS_9allocatorIiEEE19__add_back_capacityEv, symObjAddr: 0x130DC, symBinAddr: 0x100013708, symSize: 0x364 }
  - { offsetInCU: 0x292D8, offset: 0x292D8, size: 0x8, addend: 0x0, symName: __ZNKSt3__15dequeIiNS_9allocatorIiEEE24__annotate_increase_backB8ue170006Em, symObjAddr: 0x13440, symBinAddr: 0x100013A6C, symSize: 0x7C }
  - { offsetInCU: 0x2930D, offset: 0x2930D, size: 0x8, addend: 0x0, symName: __ZNSt3__116allocator_traitsINS_9allocatorIiEEE9constructB8ue170006IiJRKiEvEEvRS2_PT_DpOT0_, symObjAddr: 0x134BC, symBinAddr: 0x100013AE8, symSize: 0x34 }
  - { offsetInCU: 0x29364, offset: 0x29364, size: 0x8, addend: 0x0, symName: __ZNSt3__15dequeIiNS_9allocatorIiEEE3endB8ue170006Ev, symObjAddr: 0x134F0, symBinAddr: 0x100013B1C, symSize: 0xE0 }
  - { offsetInCU: 0x293A8, offset: 0x293A8, size: 0x8, addend: 0x0, symName: __ZNKSt3__116__deque_iteratorIiPiRiPS1_lLl1024EEdeB8ue170006Ev, symObjAddr: 0x135D0, symBinAddr: 0x100013BFC, symSize: 0x18 }
  - { offsetInCU: 0x293CE, offset: 0x293CE, size: 0x8, addend: 0x0, symName: __ZNSt3__15dequeIiNS_9allocatorIiEEE6__sizeB8ue170006Ev, symObjAddr: 0x135E8, symBinAddr: 0x100013C14, symSize: 0x28 }
  - { offsetInCU: 0x293F4, offset: 0x293F4, size: 0x8, addend: 0x0, symName: __ZNSt3__117__compressed_pairImNS_9allocatorIiEEE6secondB8ue170006Ev, symObjAddr: 0x13610, symBinAddr: 0x100013C3C, symSize: 0x24 }
  - { offsetInCU: 0x2941A, offset: 0x2941A, size: 0x8, addend: 0x0, symName: __ZNSt3__122__compressed_pair_elemINS_9allocatorIiEELi1ELb1EE5__getB8ue170006Ev, symObjAddr: 0x13634, symBinAddr: 0x100013C60, symSize: 0x14 }
  - { offsetInCU: 0x29440, offset: 0x29440, size: 0x8, addend: 0x0, symName: __ZNKSt3__15dequeIiNS_9allocatorIiEEE10__capacityB8ue170006Ev, symObjAddr: 0x13648, symBinAddr: 0x100013C74, symSize: 0x60 }
  - { offsetInCU: 0x29466, offset: 0x29466, size: 0x8, addend: 0x0, symName: __ZNKSt3__15dequeIiNS_9allocatorIiEEE13__front_spareB8ue170006Ev, symObjAddr: 0x136A8, symBinAddr: 0x100013CD4, symSize: 0x18 }
  - { offsetInCU: 0x2948C, offset: 0x2948C, size: 0x8, addend: 0x0, symName: __ZNSt3__114__split_bufferIPiNS_9allocatorIS1_EEE5frontB8ue170006Ev, symObjAddr: 0x136C0, symBinAddr: 0x100013CEC, symSize: 0x18 }
  - { offsetInCU: 0x294B2, offset: 0x294B2, size: 0x8, addend: 0x0, symName: __ZNSt3__114__split_bufferIPiNS_9allocatorIS1_EEE9pop_frontB8ue170006Ev, symObjAddr: 0x136D8, symBinAddr: 0x100013D04, symSize: 0x2C }
  - { offsetInCU: 0x294D8, offset: 0x294D8, size: 0x8, addend: 0x0, symName: __ZNSt3__114__split_bufferIPiNS_9allocatorIS1_EEE9push_backB8ue170006ERKS1_, symObjAddr: 0x13704, symBinAddr: 0x100013D30, symSize: 0x270 }
  - { offsetInCU: 0x29550, offset: 0x29550, size: 0x8, addend: 0x0, symName: __ZNKSt3__114__split_bufferIPiNS_9allocatorIS1_EEE12__back_spareB8ue170006Ev, symObjAddr: 0x13974, symBinAddr: 0x100013FA0, symSize: 0x40 }
  - { offsetInCU: 0x29576, offset: 0x29576, size: 0x8, addend: 0x0, symName: __ZNSt3__114__split_bufferIPiNS_9allocatorIS1_EEE9push_backEOS1_, symObjAddr: 0x139B4, symBinAddr: 0x100013FE0, symSize: 0x270 }
  - { offsetInCU: 0x295EE, offset: 0x295EE, size: 0x8, addend: 0x0, symName: __ZNSt3__116allocator_traitsINS_9allocatorIiEEE8allocateB8ue170006ERS2_m, symObjAddr: 0x13C24, symBinAddr: 0x100014250, symSize: 0x2C }
  - { offsetInCU: 0x29621, offset: 0x29621, size: 0x8, addend: 0x0, symName: __ZNSt3__114__split_bufferIPiNS_9allocatorIS1_EEE10push_frontEOS1_, symObjAddr: 0x13C50, symBinAddr: 0x10001427C, symSize: 0x26C }
  - { offsetInCU: 0x29699, offset: 0x29699, size: 0x8, addend: 0x0, symName: __ZNKSt3__15dequeIiNS_9allocatorIiEEE22__annotate_whole_blockB8ue170006EmNS3_22__asan_annotation_typeE, symObjAddr: 0x13EBC, symBinAddr: 0x1000144E8, symSize: 0xAC }
  - { offsetInCU: 0x2970A, offset: 0x2970A, size: 0x8, addend: 0x0, symName: __ZNSt3__114__split_bufferIPiRNS_9allocatorIS1_EEEC1EmmS4_, symObjAddr: 0x13F68, symBinAddr: 0x100014594, symSize: 0x44 }
  - { offsetInCU: 0x29766, offset: 0x29766, size: 0x8, addend: 0x0, symName: __ZNSt3__122__allocator_destructorINS_9allocatorIiEEEC1B8ue170006ERS2_m, symObjAddr: 0x13FAC, symBinAddr: 0x1000145D8, symSize: 0x3C }
  - { offsetInCU: 0x29842, offset: 0x29842, size: 0x8, addend: 0x0, symName: __ZNSt3__110unique_ptrIPiNS_22__allocator_destructorINS_9allocatorIiEEEEEC1B8ue170006ILb1EvEES1_NS_16__dependent_typeINS_27__unique_ptr_deleter_sfinaeIS5_EEXT_EE20__good_rval_ref_typeE, symObjAddr: 0x13FE8, symBinAddr: 0x100014614, symSize: 0x3C }
  - { offsetInCU: 0x29893, offset: 0x29893, size: 0x8, addend: 0x0, symName: __ZNSt3__114__split_bufferIPiRNS_9allocatorIS1_EEE9push_backEOS1_, symObjAddr: 0x14024, symBinAddr: 0x100014650, symSize: 0x270 }
  - { offsetInCU: 0x2990B, offset: 0x2990B, size: 0x8, addend: 0x0, symName: __ZNKSt3__110unique_ptrIPiNS_22__allocator_destructorINS_9allocatorIiEEEEE3getB8ue170006Ev, symObjAddr: 0x14294, symBinAddr: 0x1000148C0, symSize: 0x28 }
  - { offsetInCU: 0x29931, offset: 0x29931, size: 0x8, addend: 0x0, symName: __ZNSt3__110unique_ptrIPiNS_22__allocator_destructorINS_9allocatorIiEEEEE7releaseB8ue170006Ev, symObjAddr: 0x142BC, symBinAddr: 0x1000148E8, symSize: 0x44 }
  - { offsetInCU: 0x29966, offset: 0x29966, size: 0x8, addend: 0x0, symName: __ZNSt3__114__split_bufferIPiNS_9allocatorIS1_EEE3endB8ue170006Ev, symObjAddr: 0x14300, symBinAddr: 0x10001492C, symSize: 0x18 }
  - { offsetInCU: 0x2998C, offset: 0x2998C, size: 0x8, addend: 0x0, symName: __ZNSt3__114__split_bufferIPiNS_9allocatorIS1_EEE5beginB8ue170006Ev, symObjAddr: 0x14318, symBinAddr: 0x100014944, symSize: 0x18 }
  - { offsetInCU: 0x299B2, offset: 0x299B2, size: 0x8, addend: 0x0, symName: __ZNSt3__114__split_bufferIPiRNS_9allocatorIS1_EEE10push_frontERKS1_, symObjAddr: 0x14330, symBinAddr: 0x10001495C, symSize: 0x26C }
  - { offsetInCU: 0x29A2A, offset: 0x29A2A, size: 0x8, addend: 0x0, symName: __ZNSt3__114__split_bufferIPiNS_9allocatorIS1_EEE9__end_capB8ue170006Ev, symObjAddr: 0x145D8, symBinAddr: 0x100014C04, symSize: 0x28 }
  - { offsetInCU: 0x29A50, offset: 0x29A50, size: 0x8, addend: 0x0, symName: __ZNSt3__114__split_bufferIPiRNS_9allocatorIS1_EEE9__end_capB8ue170006Ev, symObjAddr: 0x14600, symBinAddr: 0x100014C2C, symSize: 0x28 }
  - { offsetInCU: 0x29A76, offset: 0x29A76, size: 0x8, addend: 0x0, symName: __ZNSt3__110unique_ptrIPiNS_22__allocator_destructorINS_9allocatorIiEEEEED1B8ue170006Ev, symObjAddr: 0x14628, symBinAddr: 0x100014C54, symSize: 0x2C }
  - { offsetInCU: 0x29AA0, offset: 0x29AA0, size: 0x8, addend: 0x0, symName: __ZNSt3__114__split_bufferIPiRNS_9allocatorIS1_EEED1Ev, symObjAddr: 0x14654, symBinAddr: 0x100014C80, symSize: 0x2C }
  - { offsetInCU: 0x29ACC, offset: 0x29ACC, size: 0x8, addend: 0x0, symName: __ZNSt3__114__split_bufferIPiNS_9allocatorIS1_EEE19__destruct_at_beginB8ue170006EPS1_, symObjAddr: 0x14680, symBinAddr: 0x100014CAC, symSize: 0x2C }
  - { offsetInCU: 0x29B00, offset: 0x29B00, size: 0x8, addend: 0x0, symName: __ZNSt3__114__split_bufferIPiNS_9allocatorIS1_EEE19__destruct_at_beginEPS1_NS_17integral_constantIbLb1EEE, symObjAddr: 0x146AC, symBinAddr: 0x100014CD8, symSize: 0x20 }
  - { offsetInCU: 0x29B40, offset: 0x29B40, size: 0x8, addend: 0x0, symName: __ZNSt3__114__split_bufferIPiRNS_9allocatorIS1_EEE18__construct_at_endINS_13move_iteratorIPS1_EEEENS_9enable_ifIXsr31__has_forward_iterator_categoryIT_EE5valueEvE4typeESB_SB_, symObjAddr: 0x1470C, symBinAddr: 0x100014D38, symSize: 0x60 }
  - { offsetInCU: 0x29B8D, offset: 0x29B8D, size: 0x8, addend: 0x0, symName: __ZNSt3__113move_iteratorIPPiEC1B8ue170006ES2_, symObjAddr: 0x1476C, symBinAddr: 0x100014D98, symSize: 0x34 }
  - { offsetInCU: 0x29BC5, offset: 0x29BC5, size: 0x8, addend: 0x0, symName: __ZNSt3__116allocator_traitsINS_9allocatorIPiEEE9constructB8ue170006IS2_JRKS2_EvEEvRS3_PT_DpOT0_, symObjAddr: 0x147A0, symBinAddr: 0x100014DCC, symSize: 0x34 }
  - { offsetInCU: 0x29C39, offset: 0x29C39, size: 0x8, addend: 0x0, symName: __ZNKSt3__114__move_trivialclB8ue170006IPiS2_Li0EEENS_4pairIPT_PT0_EES5_S5_S7_, symObjAddr: 0x14970, symBinAddr: 0x100014F9C, symSize: 0x48 }
  - { offsetInCU: 0x29CA1, offset: 0x29CA1, size: 0x8, addend: 0x0, symName: __ZNSt3__14pairIPPiS2_EC1B8ue170006ERKS2_S5_, symObjAddr: 0x14BE8, symBinAddr: 0x100015214, symSize: 0x3C }
  - { offsetInCU: 0x29CE7, offset: 0x29CE7, size: 0x8, addend: 0x0, symName: __ZNSt3__14pairIPPiS2_EC2B8ue170006ERKS2_S5_, symObjAddr: 0x14C24, symBinAddr: 0x100015250, symSize: 0x34 }
  - { offsetInCU: 0x29D2D, offset: 0x29D2D, size: 0x8, addend: 0x0, symName: __ZNSt3__118__unwrap_iter_implIPPiLb1EE8__unwrapB8ue170006ES2_, symObjAddr: 0x14C58, symBinAddr: 0x100015284, symSize: 0x24 }
  - { offsetInCU: 0x29D50, offset: 0x29D50, size: 0x8, addend: 0x0, symName: __ZNSt3__118__unwrap_iter_implIPPiLb1EE8__rewrapB8ue170006ES2_S2_, symObjAddr: 0x14C7C, symBinAddr: 0x1000152A8, symSize: 0x50 }
  - { offsetInCU: 0x29D81, offset: 0x29D81, size: 0x8, addend: 0x0, symName: __ZNSt3__114__split_bufferIPiRNS_9allocatorIS1_EEE28__construct_at_end_with_sizeINS_13move_iteratorIPS1_EEEEvT_m, symObjAddr: 0x14CCC, symBinAddr: 0x1000152F8, symSize: 0xE4 }
  - { offsetInCU: 0x29DE9, offset: 0x29DE9, size: 0x8, addend: 0x0, symName: __ZNSt3__114__split_bufferIPiRNS_9allocatorIS1_EEE21_ConstructTransactionC1B8ue170006EPPS1_m, symObjAddr: 0x14DEC, symBinAddr: 0x100015418, symSize: 0x3C }
  - { offsetInCU: 0x29E2F, offset: 0x29E2F, size: 0x8, addend: 0x0, symName: __ZNSt3__116allocator_traitsINS_9allocatorIPiEEE9constructB8ue170006IS2_JS2_EvEEvRS3_PT_DpOT0_, symObjAddr: 0x14E28, symBinAddr: 0x100015454, symSize: 0x34 }
  - { offsetInCU: 0x29E86, offset: 0x29E86, size: 0x8, addend: 0x0, symName: __ZNSt3__114__split_bufferIPiRNS_9allocatorIS1_EEE7__allocB8ue170006Ev, symObjAddr: 0x14E5C, symBinAddr: 0x100015488, symSize: 0x28 }
  - { offsetInCU: 0x29EAC, offset: 0x29EAC, size: 0x8, addend: 0x0, symName: __ZNKSt3__113move_iteratorIPPiEdeB8ue170006Ev, symObjAddr: 0x14E84, symBinAddr: 0x1000154B0, symSize: 0x18 }
  - { offsetInCU: 0x29ED2, offset: 0x29ED2, size: 0x8, addend: 0x0, symName: __ZNSt3__113move_iteratorIPPiEppB8ue170006Ev, symObjAddr: 0x14E9C, symBinAddr: 0x1000154C8, symSize: 0x20 }
  - { offsetInCU: 0x29EF8, offset: 0x29EF8, size: 0x8, addend: 0x0, symName: __ZNSt3__114__split_bufferIPiRNS_9allocatorIS1_EEE21_ConstructTransactionD1B8ue170006Ev, symObjAddr: 0x14EBC, symBinAddr: 0x1000154E8, symSize: 0x2C }
  - { offsetInCU: 0x29F22, offset: 0x29F22, size: 0x8, addend: 0x0, symName: __ZNSt3__114__split_bufferIPiRNS_9allocatorIS1_EEE21_ConstructTransactionC2B8ue170006EPPS1_m, symObjAddr: 0x14EE8, symBinAddr: 0x100015514, symSize: 0x44 }
  - { offsetInCU: 0x29F68, offset: 0x29F68, size: 0x8, addend: 0x0, symName: __ZNSt3__19allocatorIPiE9constructB8ue170006IS1_JS1_EEEvPT_DpOT0_, symObjAddr: 0x14F2C, symBinAddr: 0x100015558, symSize: 0x28 }
  - { offsetInCU: 0x29FBE, offset: 0x29FBE, size: 0x8, addend: 0x0, symName: __ZNSt3__117__compressed_pairIPPiRNS_9allocatorIS1_EEE6secondB8ue170006Ev, symObjAddr: 0x14F54, symBinAddr: 0x100015580, symSize: 0x28 }
  - { offsetInCU: 0x29FE4, offset: 0x29FE4, size: 0x8, addend: 0x0, symName: __ZNSt3__122__compressed_pair_elemIRNS_9allocatorIPiEELi1ELb0EE5__getB8ue170006Ev, symObjAddr: 0x14F7C, symBinAddr: 0x1000155A8, symSize: 0x18 }
  - { offsetInCU: 0x2A00A, offset: 0x2A00A, size: 0x8, addend: 0x0, symName: __ZNSt3__114__split_bufferIPiRNS_9allocatorIS1_EEE21_ConstructTransactionD2B8ue170006Ev, symObjAddr: 0x14F94, symBinAddr: 0x1000155C0, symSize: 0x20 }
  - { offsetInCU: 0x2A034, offset: 0x2A034, size: 0x8, addend: 0x0, symName: __ZNKSt3__113move_iteratorIPPiE4baseB8ue170006Ev, symObjAddr: 0x1502C, symBinAddr: 0x100015658, symSize: 0x18 }
  - { offsetInCU: 0x2A05A, offset: 0x2A05A, size: 0x8, addend: 0x0, symName: __ZNSt3__113move_iteratorIPPiEC2B8ue170006ES2_, symObjAddr: 0x15044, symBinAddr: 0x100015670, symSize: 0x20 }
  - { offsetInCU: 0x2A092, offset: 0x2A092, size: 0x8, addend: 0x0, symName: __ZNSt3__19allocatorIPiE9constructB8ue170006IS1_JRKS1_EEEvPT_DpOT0_, symObjAddr: 0x15064, symBinAddr: 0x100015690, symSize: 0x28 }
  - { offsetInCU: 0x2A0E8, offset: 0x2A0E8, size: 0x8, addend: 0x0, symName: __ZNSt3__19allocatorIiE8allocateB8ue170006Em, symObjAddr: 0x1508C, symBinAddr: 0x1000156B8, symSize: 0x84 }
  - { offsetInCU: 0x2A127, offset: 0x2A127, size: 0x8, addend: 0x0, symName: __ZNSt3__116allocator_traitsINS_9allocatorIiEEE8max_sizeB8ue170006IS2_vEEmRKS2_, symObjAddr: 0x15110, symBinAddr: 0x10001573C, symSize: 0x24 }
  - { offsetInCU: 0x2A155, offset: 0x2A155, size: 0x8, addend: 0x0, symName: __ZNKSt3__19allocatorIiE8max_sizeB8ue170006Ev, symObjAddr: 0x15134, symBinAddr: 0x100015760, symSize: 0x14 }
  - { offsetInCU: 0x2A17B, offset: 0x2A17B, size: 0x8, addend: 0x0, symName: __ZNKSt3__123__move_backward_trivialclB8ue170006IPiS2_Li0EEENS_4pairIPT_PT0_EES5_S5_S7_, symObjAddr: 0x152C4, symBinAddr: 0x1000158F0, symSize: 0x48 }
  - { offsetInCU: 0x2A1E3, offset: 0x2A1E3, size: 0x8, addend: 0x0, symName: __ZNKSt3__15dequeIiNS_9allocatorIiEEE23__annotate_poison_blockB8ue170006EPKvS5_, symObjAddr: 0x153D4, symBinAddr: 0x100015A00, symSize: 0x44 }
  - { offsetInCU: 0x2A227, offset: 0x2A227, size: 0x8, addend: 0x0, symName: __ZNSt3__114__split_bufferIPiRNS_9allocatorIS1_EEEC2EmmS4_, symObjAddr: 0x15418, symBinAddr: 0x100015A44, symSize: 0xD4 }
  - { offsetInCU: 0x2A29A, offset: 0x2A29A, size: 0x8, addend: 0x0, symName: __ZNSt3__117__compressed_pairIPPiRNS_9allocatorIS1_EEEC1B8ue170006IDnS5_EEOT_OT0_, symObjAddr: 0x154EC, symBinAddr: 0x100015B18, symSize: 0x3C }
  - { offsetInCU: 0x2A2F2, offset: 0x2A2F2, size: 0x8, addend: 0x0, symName: __ZNSt3__117__compressed_pairIPPiRNS_9allocatorIS1_EEEC2B8ue170006IDnS5_EEOT_OT0_, symObjAddr: 0x15568, symBinAddr: 0x100015B94, symSize: 0x48 }
  - { offsetInCU: 0x2A34A, offset: 0x2A34A, size: 0x8, addend: 0x0, symName: __ZNSt3__122__compressed_pair_elemIRNS_9allocatorIPiEELi1ELb0EEC2B8ue170006IS4_vEEOT_, symObjAddr: 0x155B0, symBinAddr: 0x100015BDC, symSize: 0x20 }
  - { offsetInCU: 0x2A38C, offset: 0x2A38C, size: 0x8, addend: 0x0, symName: __ZNSt3__19allocatorIPiE8allocateB8ue170006Em, symObjAddr: 0x155D0, symBinAddr: 0x100015BFC, symSize: 0x84 }
  - { offsetInCU: 0x2A3CB, offset: 0x2A3CB, size: 0x8, addend: 0x0, symName: __ZNSt3__116allocator_traitsINS_9allocatorIPiEEE8max_sizeB8ue170006IS3_vEEmRKS3_, symObjAddr: 0x15654, symBinAddr: 0x100015C80, symSize: 0x24 }
  - { offsetInCU: 0x2A3F9, offset: 0x2A3F9, size: 0x8, addend: 0x0, symName: __ZNKSt3__19allocatorIPiE8max_sizeB8ue170006Ev, symObjAddr: 0x15678, symBinAddr: 0x100015CA4, symSize: 0x14 }
  - { offsetInCU: 0x2A41F, offset: 0x2A41F, size: 0x8, addend: 0x0, symName: __ZNSt3__122__allocator_destructorINS_9allocatorIiEEEC2B8ue170006ERS2_m, symObjAddr: 0x1568C, symBinAddr: 0x100015CB8, symSize: 0x2C }
  - { offsetInCU: 0x2A465, offset: 0x2A465, size: 0x8, addend: 0x0, symName: __ZNSt3__110unique_ptrIPiNS_22__allocator_destructorINS_9allocatorIiEEEEEC2B8ue170006ILb1EvEES1_NS_16__dependent_typeINS_27__unique_ptr_deleter_sfinaeIS5_EEXT_EE20__good_rval_ref_typeE, symObjAddr: 0x156B8, symBinAddr: 0x100015CE4, symSize: 0x5C }
  - { offsetInCU: 0x2A4B6, offset: 0x2A4B6, size: 0x8, addend: 0x0, symName: __ZNSt3__117__compressed_pairIPiNS_22__allocator_destructorINS_9allocatorIiEEEEEC1B8ue170006IRS1_S5_EEOT_OT0_, symObjAddr: 0x15714, symBinAddr: 0x100015D40, symSize: 0x3C }
  - { offsetInCU: 0x2A50E, offset: 0x2A50E, size: 0x8, addend: 0x0, symName: __ZNSt3__117__compressed_pairIPiNS_22__allocator_destructorINS_9allocatorIiEEEEEC2B8ue170006IRS1_S5_EEOT_OT0_, symObjAddr: 0x15750, symBinAddr: 0x100015D7C, symSize: 0x48 }
  - { offsetInCU: 0x2A566, offset: 0x2A566, size: 0x8, addend: 0x0, symName: __ZNSt3__122__compressed_pair_elemIPiLi0ELb0EEC2B8ue170006IRS1_vEEOT_, symObjAddr: 0x15798, symBinAddr: 0x100015DC4, symSize: 0x24 }
  - { offsetInCU: 0x2A5A8, offset: 0x2A5A8, size: 0x8, addend: 0x0, symName: __ZNSt3__122__compressed_pair_elemINS_22__allocator_destructorINS_9allocatorIiEEEELi1ELb0EEC2B8ue170006IS4_vEEOT_, symObjAddr: 0x157BC, symBinAddr: 0x100015DE8, symSize: 0x24 }
  - { offsetInCU: 0x2A5EA, offset: 0x2A5EA, size: 0x8, addend: 0x0, symName: __ZNKSt3__117__compressed_pairIPiNS_22__allocator_destructorINS_9allocatorIiEEEEE5firstB8ue170006Ev, symObjAddr: 0x157E0, symBinAddr: 0x100015E0C, symSize: 0x24 }
  - { offsetInCU: 0x2A610, offset: 0x2A610, size: 0x8, addend: 0x0, symName: __ZNKSt3__122__compressed_pair_elemIPiLi0ELb0EE5__getB8ue170006Ev, symObjAddr: 0x15804, symBinAddr: 0x100015E30, symSize: 0x14 }
  - { offsetInCU: 0x2A636, offset: 0x2A636, size: 0x8, addend: 0x0, symName: __ZNSt3__117__compressed_pairIPiNS_22__allocator_destructorINS_9allocatorIiEEEEE5firstB8ue170006Ev, symObjAddr: 0x15818, symBinAddr: 0x100015E44, symSize: 0x24 }
  - { offsetInCU: 0x2A65C, offset: 0x2A65C, size: 0x8, addend: 0x0, symName: __ZNSt3__122__compressed_pair_elemIPiLi0ELb0EE5__getB8ue170006Ev, symObjAddr: 0x1583C, symBinAddr: 0x100015E68, symSize: 0x14 }
  - { offsetInCU: 0x2A682, offset: 0x2A682, size: 0x8, addend: 0x0, symName: __ZNSt3__117__compressed_pairIPPiNS_9allocatorIS1_EEE5firstB8ue170006Ev, symObjAddr: 0x15850, symBinAddr: 0x100015E7C, symSize: 0x24 }
  - { offsetInCU: 0x2A6A8, offset: 0x2A6A8, size: 0x8, addend: 0x0, symName: __ZNSt3__122__compressed_pair_elemIPPiLi0ELb0EE5__getB8ue170006Ev, symObjAddr: 0x15874, symBinAddr: 0x100015EA0, symSize: 0x14 }
  - { offsetInCU: 0x2A6CE, offset: 0x2A6CE, size: 0x8, addend: 0x0, symName: __ZNSt3__117__compressed_pairIPPiRNS_9allocatorIS1_EEE5firstB8ue170006Ev, symObjAddr: 0x15888, symBinAddr: 0x100015EB4, symSize: 0x24 }
  - { offsetInCU: 0x2A6F4, offset: 0x2A6F4, size: 0x8, addend: 0x0, symName: __ZNSt3__110unique_ptrIPiNS_22__allocator_destructorINS_9allocatorIiEEEEED2B8ue170006Ev, symObjAddr: 0x158AC, symBinAddr: 0x100015ED8, symSize: 0x30 }
  - { offsetInCU: 0x2A71E, offset: 0x2A71E, size: 0x8, addend: 0x0, symName: __ZNSt3__110unique_ptrIPiNS_22__allocator_destructorINS_9allocatorIiEEEEE5resetB8ue170006ES1_, symObjAddr: 0x158DC, symBinAddr: 0x100015F08, symSize: 0x78 }
  - { offsetInCU: 0x2A762, offset: 0x2A762, size: 0x8, addend: 0x0, symName: __ZNSt3__117__compressed_pairIPiNS_22__allocator_destructorINS_9allocatorIiEEEEE6secondB8ue170006Ev, symObjAddr: 0x15954, symBinAddr: 0x100015F80, symSize: 0x28 }
  - { offsetInCU: 0x2A788, offset: 0x2A788, size: 0x8, addend: 0x0, symName: __ZNSt3__122__allocator_destructorINS_9allocatorIiEEEclB8ue170006EPi, symObjAddr: 0x1597C, symBinAddr: 0x100015FA8, symSize: 0x34 }
  - { offsetInCU: 0x2A7BC, offset: 0x2A7BC, size: 0x8, addend: 0x0, symName: __ZNSt3__122__compressed_pair_elemINS_22__allocator_destructorINS_9allocatorIiEEEELi1ELb0EE5__getB8ue170006Ev, symObjAddr: 0x159B0, symBinAddr: 0x100015FDC, symSize: 0x14 }
  - { offsetInCU: 0x2A7E2, offset: 0x2A7E2, size: 0x8, addend: 0x0, symName: __ZNSt3__116allocator_traitsINS_9allocatorIiEEE10deallocateB8ue170006ERS2_Pim, symObjAddr: 0x159C4, symBinAddr: 0x100015FF0, symSize: 0x34 }
  - { offsetInCU: 0x2A824, offset: 0x2A824, size: 0x8, addend: 0x0, symName: __ZNSt3__19allocatorIiE10deallocateB8ue170006EPim, symObjAddr: 0x159F8, symBinAddr: 0x100016024, symSize: 0x70 }
  - { offsetInCU: 0x2A866, offset: 0x2A866, size: 0x8, addend: 0x0, symName: __ZNSt3__114__split_bufferIPiRNS_9allocatorIS1_EEED2Ev, symObjAddr: 0x15A68, symBinAddr: 0x100016094, symSize: 0x80 }
  - { offsetInCU: 0x2A892, offset: 0x2A892, size: 0x8, addend: 0x0, symName: __ZNSt3__114__split_bufferIPiRNS_9allocatorIS1_EEE5clearB8ue170006Ev, symObjAddr: 0x15AE8, symBinAddr: 0x100016114, symSize: 0x28 }
  - { offsetInCU: 0x2A8B8, offset: 0x2A8B8, size: 0x8, addend: 0x0, symName: __ZNKSt3__114__split_bufferIPiRNS_9allocatorIS1_EEE8capacityB8ue170006Ev, symObjAddr: 0x15B10, symBinAddr: 0x10001613C, symSize: 0x40 }
  - { offsetInCU: 0x2A8DE, offset: 0x2A8DE, size: 0x8, addend: 0x0, symName: __ZNSt3__114__split_bufferIPiRNS_9allocatorIS1_EEE17__destruct_at_endB8ue170006EPS1_, symObjAddr: 0x15B50, symBinAddr: 0x10001617C, symSize: 0x2C }
  - { offsetInCU: 0x2A912, offset: 0x2A912, size: 0x8, addend: 0x0, symName: __ZNSt3__114__split_bufferIPiRNS_9allocatorIS1_EEE17__destruct_at_endB8ue170006EPS1_NS_17integral_constantIbLb0EEE, symObjAddr: 0x15B7C, symBinAddr: 0x1000161A8, symSize: 0x94 }
  - { offsetInCU: 0x2A952, offset: 0x2A952, size: 0x8, addend: 0x0, symName: __ZNKSt3__114__split_bufferIPiRNS_9allocatorIS1_EEE9__end_capB8ue170006Ev, symObjAddr: 0x15C10, symBinAddr: 0x10001623C, symSize: 0x28 }
  - { offsetInCU: 0x2A978, offset: 0x2A978, size: 0x8, addend: 0x0, symName: __ZNKSt3__117__compressed_pairIPPiRNS_9allocatorIS1_EEE5firstB8ue170006Ev, symObjAddr: 0x15C38, symBinAddr: 0x100016264, symSize: 0x24 }
  - { offsetInCU: 0x2A99E, offset: 0x2A99E, size: 0x8, addend: 0x0, symName: __ZNSt3__19allocatorIiE9constructB8ue170006IiJRKiEEEvPT_DpOT0_, symObjAddr: 0x15C5C, symBinAddr: 0x100016288, symSize: 0x28 }
  - { offsetInCU: 0x2A9F4, offset: 0x2A9F4, size: 0x8, addend: 0x0, symName: __ZNKSt3__114__split_bufferIPiNS_9allocatorIS1_EEE5emptyB8ue170006Ev, symObjAddr: 0x15C84, symBinAddr: 0x1000162B0, symSize: 0x28 }
  - { offsetInCU: 0x2AA1A, offset: 0x2AA1A, size: 0x8, addend: 0x0, symName: __ZNSt3__116__deque_iteratorIiPiRiPS1_lLl1024EEC1B8ue170006ES3_S1_, symObjAddr: 0x15CAC, symBinAddr: 0x1000162D8, symSize: 0x3C }
  - { offsetInCU: 0x2AA62, offset: 0x2AA62, size: 0x8, addend: 0x0, symName: __ZNSt3__116__deque_iteratorIiPiRiPS1_lLl1024EEC2B8ue170006ES3_S1_, symObjAddr: 0x15CE8, symBinAddr: 0x100016314, symSize: 0x2C }
  - { offsetInCU: 0x2AAAA, offset: 0x2AAAA, size: 0x8, addend: 0x0, symName: __ZNSt3__117__compressed_pairImNS_9allocatorIiEEE5firstB8ue170006Ev, symObjAddr: 0x15D14, symBinAddr: 0x100016340, symSize: 0x24 }
  - { offsetInCU: 0x2AAD0, offset: 0x2AAD0, size: 0x8, addend: 0x0, symName: __ZNSt3__15dequeIiNS_9allocatorIiEEE4backEv, symObjAddr: 0x15D38, symBinAddr: 0x100016364, symSize: 0x68 }
  - { offsetInCU: 0x2AB07, offset: 0x2AB07, size: 0x8, addend: 0x0, symName: __ZNSt3__15dequeIiNS_9allocatorIiEEE8pop_backEv, symObjAddr: 0x15DA0, symBinAddr: 0x1000163CC, symSize: 0xE0 }
  - { offsetInCU: 0x2AB6B, offset: 0x2AB6B, size: 0x8, addend: 0x0, symName: __ZNSt3__116allocator_traitsINS_9allocatorIiEEE7destroyB8ue170006IivEEvRS2_PT_, symObjAddr: 0x15E80, symBinAddr: 0x1000164AC, symSize: 0x2C }
  - { offsetInCU: 0x2ABA8, offset: 0x2ABA8, size: 0x8, addend: 0x0, symName: __ZNKSt3__15dequeIiNS_9allocatorIiEEE22__annotate_shrink_backB8ue170006Emm, symObjAddr: 0x15EAC, symBinAddr: 0x1000164D8, symSize: 0x60 }
  - { offsetInCU: 0x2ABEC, offset: 0x2ABEC, size: 0x8, addend: 0x0, symName: __ZNSt3__15dequeIiNS_9allocatorIiEEE25__maybe_remove_back_spareB8ue170006Eb, symObjAddr: 0x15F0C, symBinAddr: 0x100016538, symSize: 0xE8 }
  - { offsetInCU: 0x2AC21, offset: 0x2AC21, size: 0x8, addend: 0x0, symName: __ZNSt3__19allocatorIiE7destroyB8ue170006EPi, symObjAddr: 0x15FF4, symBinAddr: 0x100016620, symSize: 0x14 }
  - { offsetInCU: 0x2AC55, offset: 0x2AC55, size: 0x8, addend: 0x0, symName: __ZNKSt3__15dequeIiNS_9allocatorIiEEE19__back_spare_blocksB8ue170006Ev, symObjAddr: 0x16008, symBinAddr: 0x100016634, symSize: 0x2C }
  - { offsetInCU: 0x2AC7B, offset: 0x2AC7B, size: 0x8, addend: 0x0, symName: __ZNSt3__114__split_bufferIPiNS_9allocatorIS1_EEE4backB8ue170006Ev, symObjAddr: 0x16034, symBinAddr: 0x100016660, symSize: 0x1C }
  - { offsetInCU: 0x2ACA1, offset: 0x2ACA1, size: 0x8, addend: 0x0, symName: __ZNSt3__114__split_bufferIPiNS_9allocatorIS1_EEE8pop_backB8ue170006Ev, symObjAddr: 0x16050, symBinAddr: 0x10001667C, symSize: 0x2C }
  - { offsetInCU: 0x2ACC7, offset: 0x2ACC7, size: 0x8, addend: 0x0, symName: __ZNSt3__119basic_istringstreamIcNS_11char_traitsIcEENS_9allocatorIcEEED2Ev, symObjAddr: 0x1607C, symBinAddr: 0x1000166A8, symSize: 0x9C }
  - { offsetInCU: 0x2AD01, offset: 0x2AD01, size: 0x8, addend: 0x0, symName: __ZTv0_n24_NSt3__119basic_istringstreamIcNS_11char_traitsIcEENS_9allocatorIcEEED1Ev, symObjAddr: 0x16118, symBinAddr: 0x100016744, symSize: 0x28 }
  - { offsetInCU: 0x2AD1E, offset: 0x2AD1E, size: 0x8, addend: 0x0, symName: __ZNSt3__115basic_stringbufIcNS_11char_traitsIcEENS_9allocatorIcEEED1Ev, symObjAddr: 0x16140, symBinAddr: 0x10001676C, symSize: 0x2C }
  - { offsetInCU: 0x2AD4B, offset: 0x2AD4B, size: 0x8, addend: 0x0, symName: __ZNSt3__115basic_stringbufIcNS_11char_traitsIcEENS_9allocatorIcEEED2Ev, symObjAddr: 0x1616C, symBinAddr: 0x100016798, symSize: 0x78 }
  - { offsetInCU: 0x2AD78, offset: 0x2AD78, size: 0x8, addend: 0x0, symName: __ZNSt3__15stackIiNS_5dequeIiNS_9allocatorIiEEEEED2Ev, symObjAddr: 0x161E4, symBinAddr: 0x100016810, symSize: 0x2C }
  - { offsetInCU: 0x2ADA4, offset: 0x2ADA4, size: 0x8, addend: 0x0, symName: __ZNSt3__15dequeIiNS_9allocatorIiEEED1B8ue170006Ev, symObjAddr: 0x16210, symBinAddr: 0x10001683C, symSize: 0x2C }
  - { offsetInCU: 0x2ADCE, offset: 0x2ADCE, size: 0x8, addend: 0x0, symName: __ZNSt3__15dequeIiNS_9allocatorIiEEED2B8ue170006Ev, symObjAddr: 0x1623C, symBinAddr: 0x100016868, symSize: 0xA4 }
  - { offsetInCU: 0x2AE24, offset: 0x2AE24, size: 0x8, addend: 0x0, symName: __ZNSt3__15dequeIiNS_9allocatorIiEEE5clearEv, symObjAddr: 0x162E0, symBinAddr: 0x10001690C, symSize: 0x184 }
  - { offsetInCU: 0x2AE87, offset: 0x2AE87, size: 0x8, addend: 0x0, symName: __ZNKSt3__15dequeIiNS_9allocatorIiEEE17__annotate_deleteB8ue170006Ev, symObjAddr: 0x16464, symBinAddr: 0x100016A90, symSize: 0xE8 }
  - { offsetInCU: 0x2AECA, offset: 0x2AECA, size: 0x8, addend: 0x0, symName: __ZNSt3__15dequeIiNS_9allocatorIiEEE5beginB8ue170006Ev, symObjAddr: 0x1654C, symBinAddr: 0x100016B78, symSize: 0xA8 }
  - { offsetInCU: 0x2AEFF, offset: 0x2AEFF, size: 0x8, addend: 0x0, symName: __ZNSt3__116__deque_iteratorIiPiRiPS1_lLl1024EEppB8ue170006Ev, symObjAddr: 0x16628, symBinAddr: 0x100016C54, symSize: 0x70 }
  - { offsetInCU: 0x2AF25, offset: 0x2AF25, size: 0x8, addend: 0x0, symName: __ZNSt3__15stackINS_12basic_stringIcNS_11char_traitsIcEENS_9allocatorIcEEEENS_5dequeIS6_NS4_IS6_EEEEED2Ev, symObjAddr: 0x166C8, symBinAddr: 0x100016CF4, symSize: 0x2C }
  - { offsetInCU: 0x2AF51, offset: 0x2AF51, size: 0x8, addend: 0x0, symName: __ZNSt3__15dequeINS_12basic_stringIcNS_11char_traitsIcEENS_9allocatorIcEEEENS4_IS6_EEED1B8ue170006Ev, symObjAddr: 0x166F4, symBinAddr: 0x100016D20, symSize: 0x2C }
  - { offsetInCU: 0x2AF7B, offset: 0x2AF7B, size: 0x8, addend: 0x0, symName: __ZNSt3__15dequeINS_12basic_stringIcNS_11char_traitsIcEENS_9allocatorIcEEEENS4_IS6_EEED2B8ue170006Ev, symObjAddr: 0x16720, symBinAddr: 0x100016D4C, symSize: 0xA4 }
  - { offsetInCU: 0x2AFD1, offset: 0x2AFD1, size: 0x8, addend: 0x0, symName: __ZNSt3__15dequeINS_12basic_stringIcNS_11char_traitsIcEENS_9allocatorIcEEEENS4_IS6_EEE5clearEv, symObjAddr: 0x167C4, symBinAddr: 0x100016DF0, symSize: 0x184 }
  - { offsetInCU: 0x2B034, offset: 0x2B034, size: 0x8, addend: 0x0, symName: __ZNKSt3__15dequeINS_12basic_stringIcNS_11char_traitsIcEENS_9allocatorIcEEEENS4_IS6_EEE17__annotate_deleteB8ue170006Ev, symObjAddr: 0x16948, symBinAddr: 0x100016F74, symSize: 0xEC }
  - { offsetInCU: 0x2B077, offset: 0x2B077, size: 0x8, addend: 0x0, symName: __ZNSt3__15dequeINS_12basic_stringIcNS_11char_traitsIcEENS_9allocatorIcEEEENS4_IS6_EEE5beginB8ue170006Ev, symObjAddr: 0x16A34, symBinAddr: 0x100017060, symSize: 0xB0 }
  - { offsetInCU: 0x2B0AC, offset: 0x2B0AC, size: 0x8, addend: 0x0, symName: __ZNSt3__116__deque_iteratorINS_12basic_stringIcNS_11char_traitsIcEENS_9allocatorIcEEEEPS6_RS6_PS7_lLl170EEppB8ue170006Ev, symObjAddr: 0x16B18, symBinAddr: 0x100017144, symSize: 0x70 }
  - { offsetInCU: 0x2B0D1, offset: 0x2B0D1, size: 0x8, addend: 0x0, symName: __Z9__isctypeim, symObjAddr: 0x16BE0, symBinAddr: 0x10001720C, symSize: 0x80 }
  - { offsetInCU: 0x2B10C, offset: 0x2B10C, size: 0x8, addend: 0x0, symName: __ZNSt3__16__treeINS_12__value_typeINS_12basic_stringIcNS_11char_traitsIcEENS_9allocatorIcEEEEiEENS_19__map_value_compareIS7_S8_NS_4lessIS7_EELb1EEENS5_IS8_EEE12__find_equalIS7_EERPNS_16__tree_node_baseIPvEERPNS_15__tree_end_nodeISJ_EERKT_, symObjAddr: 0x16C60, symBinAddr: 0x10001728C, symSize: 0x184 }
  - { offsetInCU: 0x2B179, offset: 0x2B179, size: 0x8, addend: 0x0, symName: __ZNSt3__13mapINS_12basic_stringIcNS_11char_traitsIcEENS_9allocatorIcEEEEiNS_4lessIS6_EENS4_INS_4pairIKS6_iEEEEE25__construct_node_with_keyERSA_, symObjAddr: 0x16DE4, symBinAddr: 0x100017410, symSize: 0x144 }
  - { offsetInCU: 0x2B1CF, offset: 0x2B1CF, size: 0x8, addend: 0x0, symName: __ZNSt3__16__treeINS_12__value_typeINS_12basic_stringIcNS_11char_traitsIcEENS_9allocatorIcEEEEiEENS_19__map_value_compareIS7_S8_NS_4lessIS7_EELb1EEENS5_IS8_EEE16__insert_node_atEPNS_15__tree_end_nodeIPNS_16__tree_node_baseIPvEEEERSJ_SJ_, symObjAddr: 0x16F28, symBinAddr: 0x100017554, symSize: 0xCC }
  - { offsetInCU: 0x2B224, offset: 0x2B224, size: 0x8, addend: 0x0, symName: __ZNKSt3__110unique_ptrINS_11__tree_nodeINS_12__value_typeINS_12basic_stringIcNS_11char_traitsIcEENS_9allocatorIcEEEEiEEPvEENS_21__map_node_destructorINS6_ISB_EEEEE3getB8ue170006Ev, symObjAddr: 0x16FF4, symBinAddr: 0x100017620, symSize: 0x28 }
  - { offsetInCU: 0x2B24A, offset: 0x2B24A, size: 0x8, addend: 0x0, symName: __ZNSt3__110unique_ptrINS_11__tree_nodeINS_12__value_typeINS_12basic_stringIcNS_11char_traitsIcEENS_9allocatorIcEEEEiEEPvEENS_21__map_node_destructorINS6_ISB_EEEEE7releaseB8ue170006Ev, symObjAddr: 0x1701C, symBinAddr: 0x100017648, symSize: 0x44 }
  - { offsetInCU: 0x2B27F, offset: 0x2B27F, size: 0x8, addend: 0x0, symName: __ZNSt3__110unique_ptrINS_11__tree_nodeINS_12__value_typeINS_12basic_stringIcNS_11char_traitsIcEENS_9allocatorIcEEEEiEEPvEENS_21__map_node_destructorINS6_ISB_EEEEED1B8ue170006Ev, symObjAddr: 0x17060, symBinAddr: 0x10001768C, symSize: 0x2C }
  - { offsetInCU: 0x2B2A9, offset: 0x2B2A9, size: 0x8, addend: 0x0, symName: __ZNKSt3__16__treeINS_12__value_typeINS_12basic_stringIcNS_11char_traitsIcEENS_9allocatorIcEEEEiEENS_19__map_value_compareIS7_S8_NS_4lessIS7_EELb1EEENS5_IS8_EEE10__root_ptrB8ue170006Ev, symObjAddr: 0x1708C, symBinAddr: 0x1000176B8, symSize: 0x24 }
  - { offsetInCU: 0x2B2CF, offset: 0x2B2CF, size: 0x8, addend: 0x0, symName: __ZNSt3__16__treeINS_12__value_typeINS_12basic_stringIcNS_11char_traitsIcEENS_9allocatorIcEEEEiEENS_19__map_value_compareIS7_S8_NS_4lessIS7_EELb1EEENS5_IS8_EEE10value_compB8ue170006Ev, symObjAddr: 0x170B0, symBinAddr: 0x1000176DC, symSize: 0x28 }
  - { offsetInCU: 0x2B2F5, offset: 0x2B2F5, size: 0x8, addend: 0x0, symName: __ZNKSt3__119__map_value_compareINS_12basic_stringIcNS_11char_traitsIcEENS_9allocatorIcEEEENS_12__value_typeIS6_iEENS_4lessIS6_EELb1EEclB8ue170006ERKS6_RKS8_, symObjAddr: 0x170D8, symBinAddr: 0x100017704, symSize: 0x50 }
  - { offsetInCU: 0x2B339, offset: 0x2B339, size: 0x8, addend: 0x0, symName: __ZNKSt3__119__map_value_compareINS_12basic_stringIcNS_11char_traitsIcEENS_9allocatorIcEEEENS_12__value_typeIS6_iEENS_4lessIS6_EELb1EEclB8ue170006ERKS8_RKS6_, symObjAddr: 0x17128, symBinAddr: 0x100017754, symSize: 0x48 }
  - { offsetInCU: 0x2B37D, offset: 0x2B37D, size: 0x8, addend: 0x0, symName: __ZNSt3__117__compressed_pairImNS_19__map_value_compareINS_12basic_stringIcNS_11char_traitsIcEENS_9allocatorIcEEEENS_12__value_typeIS7_iEENS_4lessIS7_EELb1EEEE6secondB8ue170006Ev, symObjAddr: 0x17170, symBinAddr: 0x10001779C, symSize: 0x24 }
  - { offsetInCU: 0x2B3A3, offset: 0x2B3A3, size: 0x8, addend: 0x0, symName: __ZNSt3__122__compressed_pair_elemINS_19__map_value_compareINS_12basic_stringIcNS_11char_traitsIcEENS_9allocatorIcEEEENS_12__value_typeIS7_iEENS_4lessIS7_EELb1EEELi1ELb1EE5__getB8ue170006Ev, symObjAddr: 0x17194, symBinAddr: 0x1000177C0, symSize: 0x14 }
  - { offsetInCU: 0x2B3C9, offset: 0x2B3C9, size: 0x8, addend: 0x0, symName: __ZNKSt3__112__value_typeINS_12basic_stringIcNS_11char_traitsIcEENS_9allocatorIcEEEEiE11__get_valueB8ue170006Ev, symObjAddr: 0x171A8, symBinAddr: 0x1000177D4, symSize: 0x14 }
  - { offsetInCU: 0x2B3EF, offset: 0x2B3EF, size: 0x8, addend: 0x0, symName: __ZNSt3__116allocator_traitsINS_9allocatorINS_11__tree_nodeINS_12__value_typeINS_12basic_stringIcNS_11char_traitsIcEENS1_IcEEEEiEEPvEEEEE8allocateB8ue170006ERSC_m, symObjAddr: 0x171BC, symBinAddr: 0x1000177E8, symSize: 0x2C }
  - { offsetInCU: 0x2B422, offset: 0x2B422, size: 0x8, addend: 0x0, symName: __ZNSt3__121__map_node_destructorINS_9allocatorINS_11__tree_nodeINS_12__value_typeINS_12basic_stringIcNS_11char_traitsIcEENS1_IcEEEEiEEPvEEEEEC1B8ue170006ERSC_, symObjAddr: 0x171E8, symBinAddr: 0x100017814, symSize: 0x34 }
  - { offsetInCU: 0x2B461, offset: 0x2B461, size: 0x8, addend: 0x0, symName: __ZNSt3__110unique_ptrINS_11__tree_nodeINS_12__value_typeINS_12basic_stringIcNS_11char_traitsIcEENS_9allocatorIcEEEEiEEPvEENS_21__map_node_destructorINS6_ISB_EEEEEC1B8ue170006ILb1EvEEPSB_NS_16__dependent_typeINS_27__unique_ptr_deleter_sfinaeISE_EEXT_EE20__good_rval_ref_typeE, symObjAddr: 0x1721C, symBinAddr: 0x100017848, symSize: 0x3C }
  - { offsetInCU: 0x2B4B2, offset: 0x2B4B2, size: 0x8, addend: 0x0, symName: __ZNSt3__116allocator_traitsINS_9allocatorINS_11__tree_nodeINS_12__value_typeINS_12basic_stringIcNS_11char_traitsIcEENS1_IcEEEEiEEPvEEEEE9constructB8ue170006IKS8_JRSF_EvEEvRSC_PT_DpOT0_, symObjAddr: 0x17258, symBinAddr: 0x100017884, symSize: 0x34 }
  - { offsetInCU: 0x2B509, offset: 0x2B509, size: 0x8, addend: 0x0, symName: __ZNKSt3__110unique_ptrINS_11__tree_nodeINS_12__value_typeINS_12basic_stringIcNS_11char_traitsIcEENS_9allocatorIcEEEEiEEPvEENS_21__map_node_destructorINS6_ISB_EEEEEptB8ue170006Ev, symObjAddr: 0x1728C, symBinAddr: 0x1000178B8, symSize: 0x28 }
  - { offsetInCU: 0x2B52F, offset: 0x2B52F, size: 0x8, addend: 0x0, symName: __ZNSt3__110unique_ptrINS_11__tree_nodeINS_12__value_typeINS_12basic_stringIcNS_11char_traitsIcEENS_9allocatorIcEEEEiEEPvEENS_21__map_node_destructorINS6_ISB_EEEEE11get_deleterB8ue170006Ev, symObjAddr: 0x172B4, symBinAddr: 0x1000178E0, symSize: 0x24 }
  - { offsetInCU: 0x2B555, offset: 0x2B555, size: 0x8, addend: 0x0, symName: __ZNSt3__116allocator_traitsINS_9allocatorINS_11__tree_nodeINS_12__value_typeINS_12basic_stringIcNS_11char_traitsIcEENS1_IcEEEEiEEPvEEEEE9constructB8ue170006IiJEvEEvRSC_PT_DpOT0_, symObjAddr: 0x172D8, symBinAddr: 0x100017904, symSize: 0x2C }
  - { offsetInCU: 0x2B597, offset: 0x2B597, size: 0x8, addend: 0x0, symName: __ZNSt3__19allocatorINS_11__tree_nodeINS_12__value_typeINS_12basic_stringIcNS_11char_traitsIcEENS0_IcEEEEiEEPvEEE8allocateB8ue170006Em, symObjAddr: 0x17304, symBinAddr: 0x100017930, symSize: 0x84 }
  - { offsetInCU: 0x2B5D6, offset: 0x2B5D6, size: 0x8, addend: 0x0, symName: __ZNSt3__116allocator_traitsINS_9allocatorINS_11__tree_nodeINS_12__value_typeINS_12basic_stringIcNS_11char_traitsIcEENS1_IcEEEEiEEPvEEEEE8max_sizeB8ue170006ISC_vEEmRKSC_, symObjAddr: 0x17388, symBinAddr: 0x1000179B4, symSize: 0x24 }
  - { offsetInCU: 0x2B604, offset: 0x2B604, size: 0x8, addend: 0x0, symName: __ZNKSt3__19allocatorINS_11__tree_nodeINS_12__value_typeINS_12basic_stringIcNS_11char_traitsIcEENS0_IcEEEEiEEPvEEE8max_sizeB8ue170006Ev, symObjAddr: 0x173AC, symBinAddr: 0x1000179D8, symSize: 0x14 }
  - { offsetInCU: 0x2B62A, offset: 0x2B62A, size: 0x8, addend: 0x0, symName: __ZNSt3__121__map_node_destructorINS_9allocatorINS_11__tree_nodeINS_12__value_typeINS_12basic_stringIcNS_11char_traitsIcEENS1_IcEEEEiEEPvEEEEEC2B8ue170006ERSC_, symObjAddr: 0x173C0, symBinAddr: 0x1000179EC, symSize: 0x28 }
  - { offsetInCU: 0x2B663, offset: 0x2B663, size: 0x8, addend: 0x0, symName: __ZNSt3__110unique_ptrINS_11__tree_nodeINS_12__value_typeINS_12basic_stringIcNS_11char_traitsIcEENS_9allocatorIcEEEEiEEPvEENS_21__map_node_destructorINS6_ISB_EEEEEC2B8ue170006ILb1EvEEPSB_NS_16__dependent_typeINS_27__unique_ptr_deleter_sfinaeISE_EEXT_EE20__good_rval_ref_typeE, symObjAddr: 0x173E8, symBinAddr: 0x100017A14, symSize: 0x5C }
  - { offsetInCU: 0x2B6B4, offset: 0x2B6B4, size: 0x8, addend: 0x0, symName: __ZNSt3__117__compressed_pairIPNS_11__tree_nodeINS_12__value_typeINS_12basic_stringIcNS_11char_traitsIcEENS_9allocatorIcEEEEiEEPvEENS_21__map_node_destructorINS6_ISB_EEEEEC1B8ue170006IRSC_SF_EEOT_OT0_, symObjAddr: 0x17444, symBinAddr: 0x100017A70, symSize: 0x3C }
  - { offsetInCU: 0x2B70C, offset: 0x2B70C, size: 0x8, addend: 0x0, symName: __ZNSt3__117__compressed_pairIPNS_11__tree_nodeINS_12__value_typeINS_12basic_stringIcNS_11char_traitsIcEENS_9allocatorIcEEEEiEEPvEENS_21__map_node_destructorINS6_ISB_EEEEEC2B8ue170006IRSC_SF_EEOT_OT0_, symObjAddr: 0x17480, symBinAddr: 0x100017AAC, symSize: 0x48 }
  - { offsetInCU: 0x2B764, offset: 0x2B764, size: 0x8, addend: 0x0, symName: __ZNSt3__122__compressed_pair_elemIPNS_11__tree_nodeINS_12__value_typeINS_12basic_stringIcNS_11char_traitsIcEENS_9allocatorIcEEEEiEEPvEELi0ELb0EEC2B8ue170006IRSC_vEEOT_, symObjAddr: 0x174C8, symBinAddr: 0x100017AF4, symSize: 0x24 }
  - { offsetInCU: 0x2B7A6, offset: 0x2B7A6, size: 0x8, addend: 0x0, symName: __ZNSt3__122__compressed_pair_elemINS_21__map_node_destructorINS_9allocatorINS_11__tree_nodeINS_12__value_typeINS_12basic_stringIcNS_11char_traitsIcEENS2_IcEEEEiEEPvEEEEEELi1ELb0EEC2B8ue170006ISE_vEEOT_, symObjAddr: 0x174EC, symBinAddr: 0x100017B18, symSize: 0x24 }
  - { offsetInCU: 0x2B7E8, offset: 0x2B7E8, size: 0x8, addend: 0x0, symName: __ZNSt3__19allocatorINS_11__tree_nodeINS_12__value_typeINS_12basic_stringIcNS_11char_traitsIcEENS0_IcEEEEiEEPvEEE9constructB8ue170006IKS7_JRSD_EEEvPT_DpOT0_, symObjAddr: 0x17510, symBinAddr: 0x100017B3C, symSize: 0x30 }
  - { offsetInCU: 0x2B83E, offset: 0x2B83E, size: 0x8, addend: 0x0, symName: __ZNKSt3__117__compressed_pairIPNS_11__tree_nodeINS_12__value_typeINS_12basic_stringIcNS_11char_traitsIcEENS_9allocatorIcEEEEiEEPvEENS_21__map_node_destructorINS6_ISB_EEEEE5firstB8ue170006Ev, symObjAddr: 0x17540, symBinAddr: 0x100017B6C, symSize: 0x24 }
  - { offsetInCU: 0x2B864, offset: 0x2B864, size: 0x8, addend: 0x0, symName: __ZNKSt3__122__compressed_pair_elemIPNS_11__tree_nodeINS_12__value_typeINS_12basic_stringIcNS_11char_traitsIcEENS_9allocatorIcEEEEiEEPvEELi0ELb0EE5__getB8ue170006Ev, symObjAddr: 0x17564, symBinAddr: 0x100017B90, symSize: 0x14 }
  - { offsetInCU: 0x2B88A, offset: 0x2B88A, size: 0x8, addend: 0x0, symName: __ZNSt3__117__compressed_pairIPNS_11__tree_nodeINS_12__value_typeINS_12basic_stringIcNS_11char_traitsIcEENS_9allocatorIcEEEEiEEPvEENS_21__map_node_destructorINS6_ISB_EEEEE6secondB8ue170006Ev, symObjAddr: 0x17578, symBinAddr: 0x100017BA4, symSize: 0x28 }
  - { offsetInCU: 0x2B8B0, offset: 0x2B8B0, size: 0x8, addend: 0x0, symName: __ZNSt3__122__compressed_pair_elemINS_21__map_node_destructorINS_9allocatorINS_11__tree_nodeINS_12__value_typeINS_12basic_stringIcNS_11char_traitsIcEENS2_IcEEEEiEEPvEEEEEELi1ELb0EE5__getB8ue170006Ev, symObjAddr: 0x175A0, symBinAddr: 0x100017BCC, symSize: 0x14 }
  - { offsetInCU: 0x2B8D6, offset: 0x2B8D6, size: 0x8, addend: 0x0, symName: __ZNSt3__19allocatorINS_11__tree_nodeINS_12__value_typeINS_12basic_stringIcNS_11char_traitsIcEENS0_IcEEEEiEEPvEEE9constructB8ue170006IiJEEEvPT_DpOT0_, symObjAddr: 0x175B4, symBinAddr: 0x100017BE0, symSize: 0x1C }
  - { offsetInCU: 0x2B918, offset: 0x2B918, size: 0x8, addend: 0x0, symName: __ZNSt3__16__treeINS_12__value_typeINS_12basic_stringIcNS_11char_traitsIcEENS_9allocatorIcEEEEiEENS_19__map_value_compareIS7_S8_NS_4lessIS7_EELb1EEENS5_IS8_EEE4sizeB8ue170006Ev, symObjAddr: 0x175D0, symBinAddr: 0x100017BFC, symSize: 0x28 }
  - { offsetInCU: 0x2B93E, offset: 0x2B93E, size: 0x8, addend: 0x0, symName: __ZNSt3__117__compressed_pairImNS_19__map_value_compareINS_12basic_stringIcNS_11char_traitsIcEENS_9allocatorIcEEEENS_12__value_typeIS7_iEENS_4lessIS7_EELb1EEEE5firstB8ue170006Ev, symObjAddr: 0x175F8, symBinAddr: 0x100017C24, symSize: 0x24 }
  - { offsetInCU: 0x2B964, offset: 0x2B964, size: 0x8, addend: 0x0, symName: __ZNSt3__117__compressed_pairIPNS_11__tree_nodeINS_12__value_typeINS_12basic_stringIcNS_11char_traitsIcEENS_9allocatorIcEEEEiEEPvEENS_21__map_node_destructorINS6_ISB_EEEEE5firstB8ue170006Ev, symObjAddr: 0x1761C, symBinAddr: 0x100017C48, symSize: 0x24 }
  - { offsetInCU: 0x2B98A, offset: 0x2B98A, size: 0x8, addend: 0x0, symName: __ZNSt3__122__compressed_pair_elemIPNS_11__tree_nodeINS_12__value_typeINS_12basic_stringIcNS_11char_traitsIcEENS_9allocatorIcEEEEiEEPvEELi0ELb0EE5__getB8ue170006Ev, symObjAddr: 0x17640, symBinAddr: 0x100017C6C, symSize: 0x14 }
  - { offsetInCU: 0x2B9B0, offset: 0x2B9B0, size: 0x8, addend: 0x0, symName: __ZNSt3__110unique_ptrINS_11__tree_nodeINS_12__value_typeINS_12basic_stringIcNS_11char_traitsIcEENS_9allocatorIcEEEEiEEPvEENS_21__map_node_destructorINS6_ISB_EEEEED2B8ue170006Ev, symObjAddr: 0x17654, symBinAddr: 0x100017C80, symSize: 0x30 }
  - { offsetInCU: 0x2B9DA, offset: 0x2B9DA, size: 0x8, addend: 0x0, symName: __ZNSt3__110unique_ptrINS_11__tree_nodeINS_12__value_typeINS_12basic_stringIcNS_11char_traitsIcEENS_9allocatorIcEEEEiEEPvEENS_21__map_node_destructorINS6_ISB_EEEEE5resetB8ue170006EPSB_, symObjAddr: 0x17684, symBinAddr: 0x100017CB0, symSize: 0x78 }
  - { offsetInCU: 0x2BA1E, offset: 0x2BA1E, size: 0x8, addend: 0x0, symName: __ZNSt3__121__map_node_destructorINS_9allocatorINS_11__tree_nodeINS_12__value_typeINS_12basic_stringIcNS_11char_traitsIcEENS1_IcEEEEiEEPvEEEEEclB8ue170006EPSB_, symObjAddr: 0x176FC, symBinAddr: 0x100017D28, symSize: 0xE4 }
  - { offsetInCU: 0x2BA53, offset: 0x2BA53, size: 0x8, addend: 0x0, symName: __ZNSt3__116allocator_traitsINS_9allocatorINS_11__tree_nodeINS_12__value_typeINS_12basic_stringIcNS_11char_traitsIcEENS1_IcEEEEiEEPvEEEEE7destroyB8ue170006IivvEEvRSC_PT_, symObjAddr: 0x177E0, symBinAddr: 0x100017E0C, symSize: 0x14 }
  - { offsetInCU: 0x2BA8D, offset: 0x2BA8D, size: 0x8, addend: 0x0, symName: __ZNSt3__116allocator_traitsINS_9allocatorINS_11__tree_nodeINS_12__value_typeINS_12basic_stringIcNS_11char_traitsIcEENS1_IcEEEEiEEPvEEEEE7destroyB8ue170006IKS8_vvEEvRSC_PT_, symObjAddr: 0x177F4, symBinAddr: 0x100017E20, symSize: 0x28 }
  - { offsetInCU: 0x2BAC7, offset: 0x2BAC7, size: 0x8, addend: 0x0, symName: __ZNSt3__16__treeINS_12__value_typeINS_12basic_stringIcNS_11char_traitsIcEENS_9allocatorIcEEEEiEENS_19__map_value_compareIS7_S8_NS_4lessIS7_EELb1EEENS5_IS8_EEE4findIS7_EENS_15__tree_iteratorIS8_PNS_11__tree_nodeIS8_PvEElEERKT_, symObjAddr: 0x1781C, symBinAddr: 0x100017E48, symSize: 0xF8 }
  - { offsetInCU: 0x2BB16, offset: 0x2BB16, size: 0x8, addend: 0x0, symName: __ZNSt3__114__map_iteratorINS_15__tree_iteratorINS_12__value_typeINS_12basic_stringIcNS_11char_traitsIcEENS_9allocatorIcEEEEiEEPNS_11__tree_nodeIS9_PvEElEEEC1B8ue170006ESE_, symObjAddr: 0x17914, symBinAddr: 0x100017F40, symSize: 0x34 }
  - { offsetInCU: 0x2BB4F, offset: 0x2BB4F, size: 0x8, addend: 0x0, symName: __ZNSt3__16__treeINS_12__value_typeINS_12basic_stringIcNS_11char_traitsIcEENS_9allocatorIcEEEEiEENS_19__map_value_compareIS7_S8_NS_4lessIS7_EELb1EEENS5_IS8_EEE13__lower_boundIS7_EENS_15__tree_iteratorIS8_PNS_11__tree_nodeIS8_PvEElEERKT_SK_PNS_15__tree_end_nodeIPNS_16__tree_node_baseISI_EEEE, symObjAddr: 0x17948, symBinAddr: 0x100017F74, symSize: 0xA4 }
  - { offsetInCU: 0x2BBAD, offset: 0x2BBAD, size: 0x8, addend: 0x0, symName: __ZNSt3__16__treeINS_12__value_typeINS_12basic_stringIcNS_11char_traitsIcEENS_9allocatorIcEEEEiEENS_19__map_value_compareIS7_S8_NS_4lessIS7_EELb1EEENS5_IS8_EEE3endB8ue170006Ev, symObjAddr: 0x17A20, symBinAddr: 0x10001804C, symSize: 0x34 }
  - { offsetInCU: 0x2BBD3, offset: 0x2BBD3, size: 0x8, addend: 0x0, symName: __ZNKSt3__115__tree_iteratorINS_12__value_typeINS_12basic_stringIcNS_11char_traitsIcEENS_9allocatorIcEEEEiEEPNS_11__tree_nodeIS8_PvEElEdeB8ue170006Ev, symObjAddr: 0x17A54, symBinAddr: 0x100018080, symSize: 0x28 }
  - { offsetInCU: 0x2BBF9, offset: 0x2BBF9, size: 0x8, addend: 0x0, symName: __ZNSt3__115__tree_iteratorINS_12__value_typeINS_12basic_stringIcNS_11char_traitsIcEENS_9allocatorIcEEEEiEEPNS_11__tree_nodeIS8_PvEElEC1B8ue170006EPNS_15__tree_end_nodeIPNS_16__tree_node_baseISA_EEEE, symObjAddr: 0x17A7C, symBinAddr: 0x1000180A8, symSize: 0x34 }
  - { offsetInCU: 0x2BC32, offset: 0x2BC32, size: 0x8, addend: 0x0, symName: __ZNSt3__115__tree_iteratorINS_12__value_typeINS_12basic_stringIcNS_11char_traitsIcEENS_9allocatorIcEEEEiEEPNS_11__tree_nodeIS8_PvEElEC2B8ue170006EPNS_15__tree_end_nodeIPNS_16__tree_node_baseISA_EEEE, symObjAddr: 0x17AB0, symBinAddr: 0x1000180DC, symSize: 0x20 }
  - { offsetInCU: 0x2BC6B, offset: 0x2BC6B, size: 0x8, addend: 0x0, symName: __ZNKSt3__115__tree_iteratorINS_12__value_typeINS_12basic_stringIcNS_11char_traitsIcEENS_9allocatorIcEEEEiEEPNS_11__tree_nodeIS8_PvEElE8__get_npB8ue170006Ev, symObjAddr: 0x17B00, symBinAddr: 0x10001812C, symSize: 0x18 }
  - { offsetInCU: 0x2BC91, offset: 0x2BC91, size: 0x8, addend: 0x0, symName: __ZNSt3__114__map_iteratorINS_15__tree_iteratorINS_12__value_typeINS_12basic_stringIcNS_11char_traitsIcEENS_9allocatorIcEEEEiEEPNS_11__tree_nodeIS9_PvEElEEEC2B8ue170006ESE_, symObjAddr: 0x17B18, symBinAddr: 0x100018144, symSize: 0x20 }
  - { offsetInCU: 0x2BCCA, offset: 0x2BCCA, size: 0x8, addend: 0x0, symName: __ZNSt3__114pointer_traitsIPNS_4pairIKNS_12basic_stringIcNS_11char_traitsIcEENS_9allocatorIcEEEEiEEE10pointer_toB8ue170006ERS9_, symObjAddr: 0x17B38, symBinAddr: 0x100018164, symSize: 0x14 }
  - { offsetInCU: 0x2BCED, offset: 0x2BCED, size: 0x8, addend: 0x0, symName: __ZNKSt3__115__tree_iteratorINS_12__value_typeINS_12basic_stringIcNS_11char_traitsIcEENS_9allocatorIcEEEEiEEPNS_11__tree_nodeIS8_PvEElEptB8ue170006Ev, symObjAddr: 0x17B4C, symBinAddr: 0x100018178, symSize: 0x2C }
  - { offsetInCU: 0x2BD13, offset: 0x2BD13, size: 0x8, addend: 0x0, symName: __ZNSt3__114pointer_traitsIPNS_12__value_typeINS_12basic_stringIcNS_11char_traitsIcEENS_9allocatorIcEEEEiEEE10pointer_toB8ue170006ERS8_, symObjAddr: 0x17B78, symBinAddr: 0x1000181A4, symSize: 0x14 }
  - { offsetInCU: 0x2BD36, offset: 0x2BD36, size: 0x8, addend: 0x0, symName: __ZNSt3__16__treeINS_12__value_typeINS_12basic_stringIcNS_11char_traitsIcEENS_9allocatorIcEEEEP6parserEENS_19__map_value_compareIS7_SA_NS_4lessIS7_EELb1EEENS5_ISA_EEE5clearEv, symObjAddr: 0x17B8C, symBinAddr: 0x1000181B8, symSize: 0x74 }
  - { offsetInCU: 0x2BD5E, offset: 0x2BD5E, size: 0x8, addend: 0x0, symName: __ZNKSt3__16__treeINS_12__value_typeINS_12basic_stringIcNS_11char_traitsIcEENS_9allocatorIcEEEEP6parserEENS_19__map_value_compareIS7_SA_NS_4lessIS7_EELb1EEENS5_ISA_EEE10value_compB8ue170006Ev, symObjAddr: 0x17C00, symBinAddr: 0x10001822C, symSize: 0x28 }
  - { offsetInCU: 0x2BD84, offset: 0x2BD84, size: 0x8, addend: 0x0, symName: __ZNSt3__16__treeINS_12__value_typeINS_12basic_stringIcNS_11char_traitsIcEENS_9allocatorIcEEEEP6parserEENS_19__map_value_compareIS7_SA_NS_4lessIS7_EELb1EEENS5_ISA_EEE19__copy_assign_allocB8ue170006ERKSG_, symObjAddr: 0x17C28, symBinAddr: 0x100018254, symSize: 0x2C }
  - { offsetInCU: 0x2BDB9, offset: 0x2BDB9, size: 0x8, addend: 0x0, symName: __ZNSt3__13mapINS_12basic_stringIcNS_11char_traitsIcEENS_9allocatorIcEEEEP6parserNS_4lessIS6_EENS4_INS_4pairIKS6_S8_EEEEE6insertB8ue170006INS_20__map_const_iteratorINS_21__tree_const_iteratorINS_12__value_typeIS6_S8_EEPNS_11__tree_nodeISK_PvEElEEEEEEvT_SR_, symObjAddr: 0x17C54, symBinAddr: 0x100018280, symSize: 0x8C }
  - { offsetInCU: 0x2BE23, offset: 0x2BE23, size: 0x8, addend: 0x0, symName: __ZNKSt3__13mapINS_12basic_stringIcNS_11char_traitsIcEENS_9allocatorIcEEEEP6parserNS_4lessIS6_EENS4_INS_4pairIKS6_S8_EEEEE5beginB8ue170006Ev, symObjAddr: 0x17CE0, symBinAddr: 0x10001830C, symSize: 0x38 }
  - { offsetInCU: 0x2BE49, offset: 0x2BE49, size: 0x8, addend: 0x0, symName: __ZNKSt3__13mapINS_12basic_stringIcNS_11char_traitsIcEENS_9allocatorIcEEEEP6parserNS_4lessIS6_EENS4_INS_4pairIKS6_S8_EEEEE3endB8ue170006Ev, symObjAddr: 0x17D18, symBinAddr: 0x100018344, symSize: 0x38 }
  - { offsetInCU: 0x2BE6F, offset: 0x2BE6F, size: 0x8, addend: 0x0, symName: __ZNKSt3__117__compressed_pairImNS_19__map_value_compareINS_12basic_stringIcNS_11char_traitsIcEENS_9allocatorIcEEEENS_12__value_typeIS7_P6parserEENS_4lessIS7_EELb1EEEE6secondB8ue170006Ev, symObjAddr: 0x17D50, symBinAddr: 0x10001837C, symSize: 0x24 }
  - { offsetInCU: 0x2BE95, offset: 0x2BE95, size: 0x8, addend: 0x0, symName: __ZNKSt3__122__compressed_pair_elemINS_19__map_value_compareINS_12basic_stringIcNS_11char_traitsIcEENS_9allocatorIcEEEENS_12__value_typeIS7_P6parserEENS_4lessIS7_EELb1EEELi1ELb1EE5__getB8ue170006Ev, symObjAddr: 0x17D74, symBinAddr: 0x1000183A0, symSize: 0x14 }
  - { offsetInCU: 0x2BEBB, offset: 0x2BEBB, size: 0x8, addend: 0x0, symName: __ZNSt3__16__treeINS_12__value_typeINS_12basic_stringIcNS_11char_traitsIcEENS_9allocatorIcEEEEP6parserEENS_19__map_value_compareIS7_SA_NS_4lessIS7_EELb1EEENS5_ISA_EEE19__copy_assign_allocB8ue170006ERKSG_NS_17integral_constantIbLb0EEE, symObjAddr: 0x17D88, symBinAddr: 0x1000183B4, symSize: 0x14 }
  - { offsetInCU: 0x2BEF7, offset: 0x2BEF7, size: 0x8, addend: 0x0, symName: __ZNKSt3__13mapINS_12basic_stringIcNS_11char_traitsIcEENS_9allocatorIcEEEEP6parserNS_4lessIS6_EENS4_INS_4pairIKS6_S8_EEEEE4cendB8ue170006Ev, symObjAddr: 0x17D9C, symBinAddr: 0x1000183C8, symSize: 0x2C }
  - { offsetInCU: 0x2BF1D, offset: 0x2BF1D, size: 0x8, addend: 0x0, symName: __ZNSt3__13mapINS_12basic_stringIcNS_11char_traitsIcEENS_9allocatorIcEEEEP6parserNS_4lessIS6_EENS4_INS_4pairIKS6_S8_EEEEE6insertB8ue170006ENS_20__map_const_iteratorINS_21__tree_const_iteratorINS_12__value_typeIS6_S8_EEPNS_11__tree_nodeISJ_PvEElEEEERKSD_, symObjAddr: 0x17DF8, symBinAddr: 0x100018424, symSize: 0x50 }
  - { offsetInCU: 0x2BF61, offset: 0x2BF61, size: 0x8, addend: 0x0, symName: __ZNSt3__120__map_const_iteratorINS_21__tree_const_iteratorINS_12__value_typeINS_12basic_stringIcNS_11char_traitsIcEENS_9allocatorIcEEEEP6parserEEPNS_11__tree_nodeISB_PvEElEEEC1B8ue170006ESG_, symObjAddr: 0x17E48, symBinAddr: 0x100018474, symSize: 0x34 }
  - { offsetInCU: 0x2BF9A, offset: 0x2BF9A, size: 0x8, addend: 0x0, symName: __ZNKSt3__120__map_const_iteratorINS_21__tree_const_iteratorINS_12__value_typeINS_12basic_stringIcNS_11char_traitsIcEENS_9allocatorIcEEEEP6parserEEPNS_11__tree_nodeISB_PvEElEEEdeB8ue170006Ev, symObjAddr: 0x17E7C, symBinAddr: 0x1000184A8, symSize: 0x28 }
  - { offsetInCU: 0x2BFC0, offset: 0x2BFC0, size: 0x8, addend: 0x0, symName: __ZNSt3__120__map_const_iteratorINS_21__tree_const_iteratorINS_12__value_typeINS_12basic_stringIcNS_11char_traitsIcEENS_9allocatorIcEEEEP6parserEEPNS_11__tree_nodeISB_PvEElEEEppB8ue170006Ev, symObjAddr: 0x17EA4, symBinAddr: 0x1000184D0, symSize: 0x2C }
  - { offsetInCU: 0x2BFE6, offset: 0x2BFE6, size: 0x8, addend: 0x0, symName: __ZNSt3__16__treeINS_12__value_typeINS_12basic_stringIcNS_11char_traitsIcEENS_9allocatorIcEEEEP6parserEENS_19__map_value_compareIS7_SA_NS_4lessIS7_EELb1EEENS5_ISA_EEE15__insert_uniqueB8ue170006ENS_21__tree_const_iteratorISA_PNS_11__tree_nodeISA_PvEElEERKNS_4pairIKS7_S9_EE, symObjAddr: 0x17F34, symBinAddr: 0x100018560, symSize: 0x64 }
  - { offsetInCU: 0x2C02A, offset: 0x2C02A, size: 0x8, addend: 0x0, symName: __ZNSt3__114__map_iteratorINS_15__tree_iteratorINS_12__value_typeINS_12basic_stringIcNS_11char_traitsIcEENS_9allocatorIcEEEEP6parserEEPNS_11__tree_nodeISB_PvEElEEEC1B8ue170006ESG_, symObjAddr: 0x17F98, symBinAddr: 0x1000185C4, symSize: 0x34 }
  - { offsetInCU: 0x2C063, offset: 0x2C063, size: 0x8, addend: 0x0, symName: __ZNSt3__16__treeINS_12__value_typeINS_12basic_stringIcNS_11char_traitsIcEENS_9allocatorIcEEEEP6parserEENS_19__map_value_compareIS7_SA_NS_4lessIS7_EELb1EEENS5_ISA_EEE30__emplace_hint_unique_key_argsIS7_JRKNS_4pairIKS7_S9_EEEEENSI_INS_15__tree_iteratorISA_PNS_11__tree_nodeISA_PvEElEEbEENS_21__tree_const_iteratorISA_SR_lEERKT_DpOT0_, symObjAddr: 0x17FCC, symBinAddr: 0x1000185F8, symSize: 0x104 }
  - { offsetInCU: 0x2C12F, offset: 0x2C12F, size: 0x8, addend: 0x0, symName: __ZNSt3__122__tree_key_value_typesINS_12__value_typeINS_12basic_stringIcNS_11char_traitsIcEENS_9allocatorIcEEEEP6parserEEE9__get_keyB8ue170006IKNS_4pairIKS7_S9_EEEENS_9enable_ifIXsr17__is_same_uncvrefIT_SF_EE5valueERSE_E4typeERSI_, symObjAddr: 0x180D0, symBinAddr: 0x1000186FC, symSize: 0x14 }
  - { offsetInCU: 0x2C15C, offset: 0x2C15C, size: 0x8, addend: 0x0, symName: __ZNSt3__16__treeINS_12__value_typeINS_12basic_stringIcNS_11char_traitsIcEENS_9allocatorIcEEEEP6parserEENS_19__map_value_compareIS7_SA_NS_4lessIS7_EELb1EEENS5_ISA_EEE12__find_equalIS7_EERPNS_16__tree_node_baseIPvEENS_21__tree_const_iteratorISA_PNS_11__tree_nodeISA_SJ_EElEERPNS_15__tree_end_nodeISL_EESM_RKT_, symObjAddr: 0x180E4, symBinAddr: 0x100018710, symSize: 0x304 }
  - { offsetInCU: 0x2C205, offset: 0x2C205, size: 0x8, addend: 0x0, symName: __ZNSt3__16__treeINS_12__value_typeINS_12basic_stringIcNS_11char_traitsIcEENS_9allocatorIcEEEEP6parserEENS_19__map_value_compareIS7_SA_NS_4lessIS7_EELb1EEENS5_ISA_EEE16__construct_nodeIJRKNS_4pairIKS7_S9_EEEEENS_10unique_ptrINS_11__tree_nodeISA_PvEENS_22__tree_node_destructorINS5_ISQ_EEEEEEDpOT_, symObjAddr: 0x183E8, symBinAddr: 0x100018A14, symSize: 0x118 }
  - { offsetInCU: 0x2C266, offset: 0x2C266, size: 0x8, addend: 0x0, symName: __ZNKSt3__110unique_ptrINS_11__tree_nodeINS_12__value_typeINS_12basic_stringIcNS_11char_traitsIcEENS_9allocatorIcEEEEP6parserEEPvEENS_22__tree_node_destructorINS6_ISD_EEEEE3getB8ue170006Ev, symObjAddr: 0x18500, symBinAddr: 0x100018B2C, symSize: 0x28 }
  - { offsetInCU: 0x2C28C, offset: 0x2C28C, size: 0x8, addend: 0x0, symName: __ZNSt3__110unique_ptrINS_11__tree_nodeINS_12__value_typeINS_12basic_stringIcNS_11char_traitsIcEENS_9allocatorIcEEEEP6parserEEPvEENS_22__tree_node_destructorINS6_ISD_EEEEE7releaseB8ue170006Ev, symObjAddr: 0x18528, symBinAddr: 0x100018B54, symSize: 0x44 }
  - { offsetInCU: 0x2C2C1, offset: 0x2C2C1, size: 0x8, addend: 0x0, symName: __ZNSt3__110unique_ptrINS_11__tree_nodeINS_12__value_typeINS_12basic_stringIcNS_11char_traitsIcEENS_9allocatorIcEEEEP6parserEEPvEENS_22__tree_node_destructorINS6_ISD_EEEEED1B8ue170006Ev, symObjAddr: 0x1856C, symBinAddr: 0x100018B98, symSize: 0x2C }
  - { offsetInCU: 0x2C2EB, offset: 0x2C2EB, size: 0x8, addend: 0x0, symName: __ZNSt3__115__tree_iteratorINS_12__value_typeINS_12basic_stringIcNS_11char_traitsIcEENS_9allocatorIcEEEEP6parserEEPNS_11__tree_nodeISA_PvEElEC1B8ue170006ESE_, symObjAddr: 0x18598, symBinAddr: 0x100018BC4, symSize: 0x34 }
  - { offsetInCU: 0x2C324, offset: 0x2C324, size: 0x8, addend: 0x0, symName: __ZNSt3__14pairINS_15__tree_iteratorINS_12__value_typeINS_12basic_stringIcNS_11char_traitsIcEENS_9allocatorIcEEEEP6parserEEPNS_11__tree_nodeISB_PvEElEEbEC1B8ue170006ERKSG_RKb, symObjAddr: 0x185CC, symBinAddr: 0x100018BF8, symSize: 0x3C }
  - { offsetInCU: 0x2C36A, offset: 0x2C36A, size: 0x8, addend: 0x0, symName: __ZNSt3__16__treeINS_12__value_typeINS_12basic_stringIcNS_11char_traitsIcEENS_9allocatorIcEEEEP6parserEENS_19__map_value_compareIS7_SA_NS_4lessIS7_EELb1EEENS5_ISA_EEE3endB8ue170006Ev, symObjAddr: 0x18608, symBinAddr: 0x100018C34, symSize: 0x34 }
  - { offsetInCU: 0x2C390, offset: 0x2C390, size: 0x8, addend: 0x0, symName: __ZNSt3__121__tree_const_iteratorINS_12__value_typeINS_12basic_stringIcNS_11char_traitsIcEENS_9allocatorIcEEEEP6parserEEPNS_11__tree_nodeISA_PvEElEC1B8ue170006ENS_15__tree_iteratorISA_SE_lEE, symObjAddr: 0x1863C, symBinAddr: 0x100018C68, symSize: 0x34 }
  - { offsetInCU: 0x2C3C9, offset: 0x2C3C9, size: 0x8, addend: 0x0, symName: __ZNKSt3__121__tree_const_iteratorINS_12__value_typeINS_12basic_stringIcNS_11char_traitsIcEENS_9allocatorIcEEEEP6parserEEPNS_11__tree_nodeISA_PvEElEdeB8ue170006Ev, symObjAddr: 0x18670, symBinAddr: 0x100018C9C, symSize: 0x28 }
  - { offsetInCU: 0x2C3EF, offset: 0x2C3EF, size: 0x8, addend: 0x0, symName: __ZNSt3__16__treeINS_12__value_typeINS_12basic_stringIcNS_11char_traitsIcEENS_9allocatorIcEEEEP6parserEENS_19__map_value_compareIS7_SA_NS_4lessIS7_EELb1EEENS5_ISA_EEE5beginB8ue170006Ev, symObjAddr: 0x18698, symBinAddr: 0x100018CC4, symSize: 0x34 }
  - { offsetInCU: 0x2C415, offset: 0x2C415, size: 0x8, addend: 0x0, symName: __ZNSt3__121__tree_const_iteratorINS_12__value_typeINS_12basic_stringIcNS_11char_traitsIcEENS_9allocatorIcEEEEP6parserEEPNS_11__tree_nodeISA_PvEElEmmB8ue170006Ev, symObjAddr: 0x186CC, symBinAddr: 0x100018CF8, symSize: 0x38 }
  - { offsetInCU: 0x2C43B, offset: 0x2C43B, size: 0x8, addend: 0x0, symName: __ZNKSt3__121__tree_const_iteratorINS_12__value_typeINS_12basic_stringIcNS_11char_traitsIcEENS_9allocatorIcEEEEP6parserEEPNS_11__tree_nodeISA_PvEElE8__get_npB8ue170006Ev, symObjAddr: 0x18740, symBinAddr: 0x100018D6C, symSize: 0x18 }
  - { offsetInCU: 0x2C461, offset: 0x2C461, size: 0x8, addend: 0x0, symName: __ZNSt3__115__tree_iteratorINS_12__value_typeINS_12basic_stringIcNS_11char_traitsIcEENS_9allocatorIcEEEEP6parserEEPNS_11__tree_nodeISA_PvEElEC1B8ue170006EPNS_15__tree_end_nodeIPNS_16__tree_node_baseISC_EEEE, symObjAddr: 0x18758, symBinAddr: 0x100018D84, symSize: 0x34 }
  - { offsetInCU: 0x2C49A, offset: 0x2C49A, size: 0x8, addend: 0x0, symName: __ZNSt3__115__tree_iteratorINS_12__value_typeINS_12basic_stringIcNS_11char_traitsIcEENS_9allocatorIcEEEEP6parserEEPNS_11__tree_nodeISA_PvEElEC2B8ue170006EPNS_15__tree_end_nodeIPNS_16__tree_node_baseISC_EEEE, symObjAddr: 0x1878C, symBinAddr: 0x100018DB8, symSize: 0x20 }
  - { offsetInCU: 0x2C4D3, offset: 0x2C4D3, size: 0x8, addend: 0x0, symName: __ZNSt3__121__tree_const_iteratorINS_12__value_typeINS_12basic_stringIcNS_11char_traitsIcEENS_9allocatorIcEEEEP6parserEEPNS_11__tree_nodeISA_PvEElEC2B8ue170006ENS_15__tree_iteratorISA_SE_lEE, symObjAddr: 0x187AC, symBinAddr: 0x100018DD8, symSize: 0x20 }
  - { offsetInCU: 0x2C50C, offset: 0x2C50C, size: 0x8, addend: 0x0, symName: __ZNSt3__121__tree_const_iteratorINS_12__value_typeINS_12basic_stringIcNS_11char_traitsIcEENS_9allocatorIcEEEEP6parserEEPNS_11__tree_nodeISA_PvEElEppB8ue170006Ev, symObjAddr: 0x18984, symBinAddr: 0x100018FB0, symSize: 0x38 }
  - { offsetInCU: 0x2C532, offset: 0x2C532, size: 0x8, addend: 0x0, symName: __ZNSt3__122__tree_node_destructorINS_9allocatorINS_11__tree_nodeINS_12__value_typeINS_12basic_stringIcNS_11char_traitsIcEENS1_IcEEEEP6parserEEPvEEEEEC1B8ue170006ERSE_b, symObjAddr: 0x18A7C, symBinAddr: 0x1000190A8, symSize: 0x48 }
  - { offsetInCU: 0x2C580, offset: 0x2C580, size: 0x8, addend: 0x0, symName: __ZNSt3__110unique_ptrINS_11__tree_nodeINS_12__value_typeINS_12basic_stringIcNS_11char_traitsIcEENS_9allocatorIcEEEEP6parserEEPvEENS_22__tree_node_destructorINS6_ISD_EEEEEC1B8ue170006ILb1EvEEPSD_NS_16__dependent_typeINS_27__unique_ptr_deleter_sfinaeISG_EEXT_EE20__good_rval_ref_typeE, symObjAddr: 0x18AC4, symBinAddr: 0x1000190F0, symSize: 0x3C }
  - { offsetInCU: 0x2C5D1, offset: 0x2C5D1, size: 0x8, addend: 0x0, symName: __ZNSt3__116allocator_traitsINS_9allocatorINS_11__tree_nodeINS_12__value_typeINS_12basic_stringIcNS_11char_traitsIcEENS1_IcEEEEP6parserEEPvEEEEE9constructB8ue170006INS_4pairIKS8_SA_EEJRKSJ_EvEEvRSE_PT_DpOT0_, symObjAddr: 0x18B00, symBinAddr: 0x10001912C, symSize: 0x34 }
  - { offsetInCU: 0x2C628, offset: 0x2C628, size: 0x8, addend: 0x0, symName: __ZNKSt3__110unique_ptrINS_11__tree_nodeINS_12__value_typeINS_12basic_stringIcNS_11char_traitsIcEENS_9allocatorIcEEEEP6parserEEPvEENS_22__tree_node_destructorINS6_ISD_EEEEEptB8ue170006Ev, symObjAddr: 0x18B34, symBinAddr: 0x100019160, symSize: 0x28 }
  - { offsetInCU: 0x2C64E, offset: 0x2C64E, size: 0x8, addend: 0x0, symName: __ZNSt3__110unique_ptrINS_11__tree_nodeINS_12__value_typeINS_12basic_stringIcNS_11char_traitsIcEENS_9allocatorIcEEEEP6parserEEPvEENS_22__tree_node_destructorINS6_ISD_EEEEE11get_deleterB8ue170006Ev, symObjAddr: 0x18B5C, symBinAddr: 0x100019188, symSize: 0x24 }
  - { offsetInCU: 0x2C674, offset: 0x2C674, size: 0x8, addend: 0x0, symName: __ZNSt3__122__tree_node_destructorINS_9allocatorINS_11__tree_nodeINS_12__value_typeINS_12basic_stringIcNS_11char_traitsIcEENS1_IcEEEEP6parserEEPvEEEEEC2B8ue170006ERSE_b, symObjAddr: 0x18B80, symBinAddr: 0x1000191AC, symSize: 0x38 }
  - { offsetInCU: 0x2C6BC, offset: 0x2C6BC, size: 0x8, addend: 0x0, symName: __ZNSt3__110unique_ptrINS_11__tree_nodeINS_12__value_typeINS_12basic_stringIcNS_11char_traitsIcEENS_9allocatorIcEEEEP6parserEEPvEENS_22__tree_node_destructorINS6_ISD_EEEEEC2B8ue170006ILb1EvEEPSD_NS_16__dependent_typeINS_27__unique_ptr_deleter_sfinaeISG_EEXT_EE20__good_rval_ref_typeE, symObjAddr: 0x18BB8, symBinAddr: 0x1000191E4, symSize: 0x5C }
  - { offsetInCU: 0x2C70D, offset: 0x2C70D, size: 0x8, addend: 0x0, symName: __ZNSt3__117__compressed_pairIPNS_11__tree_nodeINS_12__value_typeINS_12basic_stringIcNS_11char_traitsIcEENS_9allocatorIcEEEEP6parserEEPvEENS_22__tree_node_destructorINS6_ISD_EEEEEC1B8ue170006IRSE_SH_EEOT_OT0_, symObjAddr: 0x18C14, symBinAddr: 0x100019240, symSize: 0x3C }
  - { offsetInCU: 0x2C765, offset: 0x2C765, size: 0x8, addend: 0x0, symName: __ZNSt3__117__compressed_pairIPNS_11__tree_nodeINS_12__value_typeINS_12basic_stringIcNS_11char_traitsIcEENS_9allocatorIcEEEEP6parserEEPvEENS_22__tree_node_destructorINS6_ISD_EEEEEC2B8ue170006IRSE_SH_EEOT_OT0_, symObjAddr: 0x18C50, symBinAddr: 0x10001927C, symSize: 0x48 }
  - { offsetInCU: 0x2C7BD, offset: 0x2C7BD, size: 0x8, addend: 0x0, symName: __ZNSt3__122__compressed_pair_elemINS_22__tree_node_destructorINS_9allocatorINS_11__tree_nodeINS_12__value_typeINS_12basic_stringIcNS_11char_traitsIcEENS2_IcEEEEP6parserEEPvEEEEEELi1ELb0EEC2B8ue170006ISG_vEEOT_, symObjAddr: 0x18C98, symBinAddr: 0x1000192C4, symSize: 0x24 }
  - { offsetInCU: 0x2C7FF, offset: 0x2C7FF, size: 0x8, addend: 0x0, symName: __ZNSt3__19allocatorINS_11__tree_nodeINS_12__value_typeINS_12basic_stringIcNS_11char_traitsIcEENS0_IcEEEEP6parserEEPvEEE9constructB8ue170006INS_4pairIKS7_S9_EEJRKSH_EEEvPT_DpOT0_, symObjAddr: 0x18CBC, symBinAddr: 0x1000192E8, symSize: 0x30 }
  - { offsetInCU: 0x2C855, offset: 0x2C855, size: 0x8, addend: 0x0, symName: __ZNSt3__14pairIKNS_12basic_stringIcNS_11char_traitsIcEENS_9allocatorIcEEEEP6parserEC1B8ue170006ERKSA_, symObjAddr: 0x18CEC, symBinAddr: 0x100019318, symSize: 0x34 }
  - { offsetInCU: 0x2C889, offset: 0x2C889, size: 0x8, addend: 0x0, symName: __ZNSt3__14pairIKNS_12basic_stringIcNS_11char_traitsIcEENS_9allocatorIcEEEEP6parserEC2B8ue170006ERKSA_, symObjAddr: 0x18D20, symBinAddr: 0x10001934C, symSize: 0x40 }
  - { offsetInCU: 0x2C8BD, offset: 0x2C8BD, size: 0x8, addend: 0x0, symName: __ZNKSt3__117__compressed_pairIPNS_11__tree_nodeINS_12__value_typeINS_12basic_stringIcNS_11char_traitsIcEENS_9allocatorIcEEEEP6parserEEPvEENS_22__tree_node_destructorINS6_ISD_EEEEE5firstB8ue170006Ev, symObjAddr: 0x18D60, symBinAddr: 0x10001938C, symSize: 0x24 }
  - { offsetInCU: 0x2C8E3, offset: 0x2C8E3, size: 0x8, addend: 0x0, symName: __ZNSt3__117__compressed_pairIPNS_11__tree_nodeINS_12__value_typeINS_12basic_stringIcNS_11char_traitsIcEENS_9allocatorIcEEEEP6parserEEPvEENS_22__tree_node_destructorINS6_ISD_EEEEE6secondB8ue170006Ev, symObjAddr: 0x18D84, symBinAddr: 0x1000193B0, symSize: 0x28 }
  - { offsetInCU: 0x2C909, offset: 0x2C909, size: 0x8, addend: 0x0, symName: __ZNSt3__122__compressed_pair_elemINS_22__tree_node_destructorINS_9allocatorINS_11__tree_nodeINS_12__value_typeINS_12basic_stringIcNS_11char_traitsIcEENS2_IcEEEEP6parserEEPvEEEEEELi1ELb0EE5__getB8ue170006Ev, symObjAddr: 0x18DAC, symBinAddr: 0x1000193D8, symSize: 0x14 }
  - { offsetInCU: 0x2C92F, offset: 0x2C92F, size: 0x8, addend: 0x0, symName: __ZNSt3__117__compressed_pairIPNS_11__tree_nodeINS_12__value_typeINS_12basic_stringIcNS_11char_traitsIcEENS_9allocatorIcEEEEP6parserEEPvEENS_22__tree_node_destructorINS6_ISD_EEEEE5firstB8ue170006Ev, symObjAddr: 0x18DC0, symBinAddr: 0x1000193EC, symSize: 0x24 }
  - { offsetInCU: 0x2C955, offset: 0x2C955, size: 0x8, addend: 0x0, symName: __ZNSt3__110unique_ptrINS_11__tree_nodeINS_12__value_typeINS_12basic_stringIcNS_11char_traitsIcEENS_9allocatorIcEEEEP6parserEEPvEENS_22__tree_node_destructorINS6_ISD_EEEEED2B8ue170006Ev, symObjAddr: 0x18DE4, symBinAddr: 0x100019410, symSize: 0x30 }
  - { offsetInCU: 0x2C97F, offset: 0x2C97F, size: 0x8, addend: 0x0, symName: __ZNSt3__110unique_ptrINS_11__tree_nodeINS_12__value_typeINS_12basic_stringIcNS_11char_traitsIcEENS_9allocatorIcEEEEP6parserEEPvEENS_22__tree_node_destructorINS6_ISD_EEEEE5resetB8ue170006EPSD_, symObjAddr: 0x18E14, symBinAddr: 0x100019440, symSize: 0x78 }
  - { offsetInCU: 0x2C9C3, offset: 0x2C9C3, size: 0x8, addend: 0x0, symName: __ZNSt3__122__tree_node_destructorINS_9allocatorINS_11__tree_nodeINS_12__value_typeINS_12basic_stringIcNS_11char_traitsIcEENS1_IcEEEEP6parserEEPvEEEEEclB8ue170006EPSD_, symObjAddr: 0x18E8C, symBinAddr: 0x1000194B8, symSize: 0xAC }
  - { offsetInCU: 0x2C9F8, offset: 0x2C9F8, size: 0x8, addend: 0x0, symName: __ZNSt3__115__tree_iteratorINS_12__value_typeINS_12basic_stringIcNS_11char_traitsIcEENS_9allocatorIcEEEEP6parserEEPNS_11__tree_nodeISA_PvEElEC2B8ue170006ESE_, symObjAddr: 0x18F38, symBinAddr: 0x100019564, symSize: 0x20 }
  - { offsetInCU: 0x2CA31, offset: 0x2CA31, size: 0x8, addend: 0x0, symName: __ZNSt3__14pairINS_15__tree_iteratorINS_12__value_typeINS_12basic_stringIcNS_11char_traitsIcEENS_9allocatorIcEEEEP6parserEEPNS_11__tree_nodeISB_PvEElEEbEC2B8ue170006ERKSG_RKb, symObjAddr: 0x18F58, symBinAddr: 0x100019584, symSize: 0x38 }
  - { offsetInCU: 0x2CA77, offset: 0x2CA77, size: 0x8, addend: 0x0, symName: __ZNSt3__114__map_iteratorINS_15__tree_iteratorINS_12__value_typeINS_12basic_stringIcNS_11char_traitsIcEENS_9allocatorIcEEEEP6parserEEPNS_11__tree_nodeISB_PvEElEEEC2B8ue170006ESG_, symObjAddr: 0x18F90, symBinAddr: 0x1000195BC, symSize: 0x20 }
  - { offsetInCU: 0x2CAB0, offset: 0x2CAB0, size: 0x8, addend: 0x0, symName: __ZNSt3__120__map_const_iteratorINS_21__tree_const_iteratorINS_12__value_typeINS_12basic_stringIcNS_11char_traitsIcEENS_9allocatorIcEEEEP6parserEEPNS_11__tree_nodeISB_PvEElEEEC2B8ue170006ESG_, symObjAddr: 0x18FB0, symBinAddr: 0x1000195DC, symSize: 0x20 }
  - { offsetInCU: 0x2CAE9, offset: 0x2CAE9, size: 0x8, addend: 0x0, symName: __ZNKSt3__121__tree_const_iteratorINS_12__value_typeINS_12basic_stringIcNS_11char_traitsIcEENS_9allocatorIcEEEEP6parserEEPNS_11__tree_nodeISA_PvEElEptB8ue170006Ev, symObjAddr: 0x18FD0, symBinAddr: 0x1000195FC, symSize: 0x2C }
  - { offsetInCU: 0x2CB0F, offset: 0x2CB0F, size: 0x8, addend: 0x0, symName: __ZNSt3__114pointer_traitsIPKNS_12__value_typeINS_12basic_stringIcNS_11char_traitsIcEENS_9allocatorIcEEEEP6parserEEE10pointer_toB8ue170006ERSB_, symObjAddr: 0x18FFC, symBinAddr: 0x100019628, symSize: 0x14 }
  - { offsetInCU: 0x2CB32, offset: 0x2CB32, size: 0x8, addend: 0x0, symName: __ZNKSt3__16__treeINS_12__value_typeINS_12basic_stringIcNS_11char_traitsIcEENS_9allocatorIcEEEEP6parserEENS_19__map_value_compareIS7_SA_NS_4lessIS7_EELb1EEENS5_ISA_EEE5beginB8ue170006Ev, symObjAddr: 0x19010, symBinAddr: 0x10001963C, symSize: 0x34 }
  - { offsetInCU: 0x2CB58, offset: 0x2CB58, size: 0x8, addend: 0x0, symName: __ZNKSt3__16__treeINS_12__value_typeINS_12basic_stringIcNS_11char_traitsIcEENS_9allocatorIcEEEEP6parserEENS_19__map_value_compareIS7_SA_NS_4lessIS7_EELb1EEENS5_ISA_EEE12__begin_nodeB8ue170006Ev, symObjAddr: 0x19044, symBinAddr: 0x100019670, symSize: 0x14 }
  - { offsetInCU: 0x2CB7E, offset: 0x2CB7E, size: 0x8, addend: 0x0, symName: __ZNSt3__121__tree_const_iteratorINS_12__value_typeINS_12basic_stringIcNS_11char_traitsIcEENS_9allocatorIcEEEEP6parserEEPNS_11__tree_nodeISA_PvEElEC1B8ue170006EPNS_15__tree_end_nodeIPNS_16__tree_node_baseISC_EEEE, symObjAddr: 0x19058, symBinAddr: 0x100019684, symSize: 0x34 }
  - { offsetInCU: 0x2CBB7, offset: 0x2CBB7, size: 0x8, addend: 0x0, symName: __ZNSt3__121__tree_const_iteratorINS_12__value_typeINS_12basic_stringIcNS_11char_traitsIcEENS_9allocatorIcEEEEP6parserEEPNS_11__tree_nodeISA_PvEElEC2B8ue170006EPNS_15__tree_end_nodeIPNS_16__tree_node_baseISC_EEEE, symObjAddr: 0x1908C, symBinAddr: 0x1000196B8, symSize: 0x20 }
  - { offsetInCU: 0x2CBF0, offset: 0x2CBF0, size: 0x8, addend: 0x0, symName: __ZNKSt3__16__treeINS_12__value_typeINS_12basic_stringIcNS_11char_traitsIcEENS_9allocatorIcEEEEP6parserEENS_19__map_value_compareIS7_SA_NS_4lessIS7_EELb1EEENS5_ISA_EEE3endB8ue170006Ev, symObjAddr: 0x190AC, symBinAddr: 0x1000196D8, symSize: 0x34 }
  - { offsetInCU: 0x2CC16, offset: 0x2CC16, size: 0x8, addend: 0x0, symName: __ZNSt3__16__treeINS_12__value_typeINS_12basic_stringIcNS_11char_traitsIcEENS_9allocatorIcEEEEiEENS_19__map_value_compareIS7_S8_NS_4lessIS7_EELb1EEENS5_IS8_EEE5clearEv, symObjAddr: 0x190E0, symBinAddr: 0x10001970C, symSize: 0x74 }
  - { offsetInCU: 0x2CC3E, offset: 0x2CC3E, size: 0x8, addend: 0x0, symName: __ZNKSt3__16__treeINS_12__value_typeINS_12basic_stringIcNS_11char_traitsIcEENS_9allocatorIcEEEEiEENS_19__map_value_compareIS7_S8_NS_4lessIS7_EELb1EEENS5_IS8_EEE10value_compB8ue170006Ev, symObjAddr: 0x19154, symBinAddr: 0x100019780, symSize: 0x28 }
  - { offsetInCU: 0x2CC64, offset: 0x2CC64, size: 0x8, addend: 0x0, symName: __ZNSt3__16__treeINS_12__value_typeINS_12basic_stringIcNS_11char_traitsIcEENS_9allocatorIcEEEEiEENS_19__map_value_compareIS7_S8_NS_4lessIS7_EELb1EEENS5_IS8_EEE19__copy_assign_allocB8ue170006ERKSE_, symObjAddr: 0x1917C, symBinAddr: 0x1000197A8, symSize: 0x2C }
  - { offsetInCU: 0x2CC99, offset: 0x2CC99, size: 0x8, addend: 0x0, symName: __ZNSt3__13mapINS_12basic_stringIcNS_11char_traitsIcEENS_9allocatorIcEEEEiNS_4lessIS6_EENS4_INS_4pairIKS6_iEEEEE6insertB8ue170006INS_20__map_const_iteratorINS_21__tree_const_iteratorINS_12__value_typeIS6_iEEPNS_11__tree_nodeISI_PvEElEEEEEEvT_SP_, symObjAddr: 0x191A8, symBinAddr: 0x1000197D4, symSize: 0x8C }
  - { offsetInCU: 0x2CD03, offset: 0x2CD03, size: 0x8, addend: 0x0, symName: __ZNKSt3__13mapINS_12basic_stringIcNS_11char_traitsIcEENS_9allocatorIcEEEEiNS_4lessIS6_EENS4_INS_4pairIKS6_iEEEEE5beginB8ue170006Ev, symObjAddr: 0x19234, symBinAddr: 0x100019860, symSize: 0x38 }
  - { offsetInCU: 0x2CD29, offset: 0x2CD29, size: 0x8, addend: 0x0, symName: __ZNKSt3__13mapINS_12basic_stringIcNS_11char_traitsIcEENS_9allocatorIcEEEEiNS_4lessIS6_EENS4_INS_4pairIKS6_iEEEEE3endB8ue170006Ev, symObjAddr: 0x1926C, symBinAddr: 0x100019898, symSize: 0x38 }
  - { offsetInCU: 0x2CD4F, offset: 0x2CD4F, size: 0x8, addend: 0x0, symName: __ZNKSt3__117__compressed_pairImNS_19__map_value_compareINS_12basic_stringIcNS_11char_traitsIcEENS_9allocatorIcEEEENS_12__value_typeIS7_iEENS_4lessIS7_EELb1EEEE6secondB8ue170006Ev, symObjAddr: 0x192A4, symBinAddr: 0x1000198D0, symSize: 0x24 }
  - { offsetInCU: 0x2CD75, offset: 0x2CD75, size: 0x8, addend: 0x0, symName: __ZNKSt3__122__compressed_pair_elemINS_19__map_value_compareINS_12basic_stringIcNS_11char_traitsIcEENS_9allocatorIcEEEENS_12__value_typeIS7_iEENS_4lessIS7_EELb1EEELi1ELb1EE5__getB8ue170006Ev, symObjAddr: 0x192C8, symBinAddr: 0x1000198F4, symSize: 0x14 }
  - { offsetInCU: 0x2CD9B, offset: 0x2CD9B, size: 0x8, addend: 0x0, symName: __ZNSt3__16__treeINS_12__value_typeINS_12basic_stringIcNS_11char_traitsIcEENS_9allocatorIcEEEEiEENS_19__map_value_compareIS7_S8_NS_4lessIS7_EELb1EEENS5_IS8_EEE19__copy_assign_allocB8ue170006ERKSE_NS_17integral_constantIbLb0EEE, symObjAddr: 0x192DC, symBinAddr: 0x100019908, symSize: 0x14 }
  - { offsetInCU: 0x2CDD7, offset: 0x2CDD7, size: 0x8, addend: 0x0, symName: __ZNKSt3__13mapINS_12basic_stringIcNS_11char_traitsIcEENS_9allocatorIcEEEEiNS_4lessIS6_EENS4_INS_4pairIKS6_iEEEEE4cendB8ue170006Ev, symObjAddr: 0x192F0, symBinAddr: 0x10001991C, symSize: 0x2C }
  - { offsetInCU: 0x2CDFD, offset: 0x2CDFD, size: 0x8, addend: 0x0, symName: __ZNSt3__13mapINS_12basic_stringIcNS_11char_traitsIcEENS_9allocatorIcEEEEiNS_4lessIS6_EENS4_INS_4pairIKS6_iEEEEE6insertB8ue170006ENS_20__map_const_iteratorINS_21__tree_const_iteratorINS_12__value_typeIS6_iEEPNS_11__tree_nodeISH_PvEElEEEERKSB_, symObjAddr: 0x1934C, symBinAddr: 0x100019978, symSize: 0x50 }
  - { offsetInCU: 0x2CE41, offset: 0x2CE41, size: 0x8, addend: 0x0, symName: __ZNSt3__120__map_const_iteratorINS_21__tree_const_iteratorINS_12__value_typeINS_12basic_stringIcNS_11char_traitsIcEENS_9allocatorIcEEEEiEEPNS_11__tree_nodeIS9_PvEElEEEC1B8ue170006ESE_, symObjAddr: 0x1939C, symBinAddr: 0x1000199C8, symSize: 0x34 }
  - { offsetInCU: 0x2CE7A, offset: 0x2CE7A, size: 0x8, addend: 0x0, symName: __ZNKSt3__120__map_const_iteratorINS_21__tree_const_iteratorINS_12__value_typeINS_12basic_stringIcNS_11char_traitsIcEENS_9allocatorIcEEEEiEEPNS_11__tree_nodeIS9_PvEElEEEdeB8ue170006Ev, symObjAddr: 0x193D0, symBinAddr: 0x1000199FC, symSize: 0x28 }
  - { offsetInCU: 0x2CEA0, offset: 0x2CEA0, size: 0x8, addend: 0x0, symName: __ZNSt3__120__map_const_iteratorINS_21__tree_const_iteratorINS_12__value_typeINS_12basic_stringIcNS_11char_traitsIcEENS_9allocatorIcEEEEiEEPNS_11__tree_nodeIS9_PvEElEEEppB8ue170006Ev, symObjAddr: 0x193F8, symBinAddr: 0x100019A24, symSize: 0x2C }
  - { offsetInCU: 0x2CEC6, offset: 0x2CEC6, size: 0x8, addend: 0x0, symName: __ZNSt3__16__treeINS_12__value_typeINS_12basic_stringIcNS_11char_traitsIcEENS_9allocatorIcEEEEiEENS_19__map_value_compareIS7_S8_NS_4lessIS7_EELb1EEENS5_IS8_EEE15__insert_uniqueB8ue170006ENS_21__tree_const_iteratorIS8_PNS_11__tree_nodeIS8_PvEElEERKNS_4pairIKS7_iEE, symObjAddr: 0x19488, symBinAddr: 0x100019AB4, symSize: 0x64 }
  - { offsetInCU: 0x2CF0A, offset: 0x2CF0A, size: 0x8, addend: 0x0, symName: __ZNSt3__16__treeINS_12__value_typeINS_12basic_stringIcNS_11char_traitsIcEENS_9allocatorIcEEEEiEENS_19__map_value_compareIS7_S8_NS_4lessIS7_EELb1EEENS5_IS8_EEE30__emplace_hint_unique_key_argsIS7_JRKNS_4pairIKS7_iEEEEENSG_INS_15__tree_iteratorIS8_PNS_11__tree_nodeIS8_PvEElEEbEENS_21__tree_const_iteratorIS8_SP_lEERKT_DpOT0_, symObjAddr: 0x194EC, symBinAddr: 0x100019B18, symSize: 0x104 }
  - { offsetInCU: 0x2CFD6, offset: 0x2CFD6, size: 0x8, addend: 0x0, symName: __ZNSt3__122__tree_key_value_typesINS_12__value_typeINS_12basic_stringIcNS_11char_traitsIcEENS_9allocatorIcEEEEiEEE9__get_keyB8ue170006IKNS_4pairIKS7_iEEEENS_9enable_ifIXsr17__is_same_uncvrefIT_SD_EE5valueERSC_E4typeERSG_, symObjAddr: 0x195F0, symBinAddr: 0x100019C1C, symSize: 0x14 }
  - { offsetInCU: 0x2D003, offset: 0x2D003, size: 0x8, addend: 0x0, symName: __ZNSt3__16__treeINS_12__value_typeINS_12basic_stringIcNS_11char_traitsIcEENS_9allocatorIcEEEEiEENS_19__map_value_compareIS7_S8_NS_4lessIS7_EELb1EEENS5_IS8_EEE12__find_equalIS7_EERPNS_16__tree_node_baseIPvEENS_21__tree_const_iteratorIS8_PNS_11__tree_nodeIS8_SH_EElEERPNS_15__tree_end_nodeISJ_EESK_RKT_, symObjAddr: 0x19604, symBinAddr: 0x100019C30, symSize: 0x304 }
  - { offsetInCU: 0x2D0AC, offset: 0x2D0AC, size: 0x8, addend: 0x0, symName: __ZNSt3__16__treeINS_12__value_typeINS_12basic_stringIcNS_11char_traitsIcEENS_9allocatorIcEEEEiEENS_19__map_value_compareIS7_S8_NS_4lessIS7_EELb1EEENS5_IS8_EEE16__construct_nodeIJRKNS_4pairIKS7_iEEEEENS_10unique_ptrINS_11__tree_nodeIS8_PvEENS_22__tree_node_destructorINS5_ISO_EEEEEEDpOT_, symObjAddr: 0x19908, symBinAddr: 0x100019F34, symSize: 0x118 }
  - { offsetInCU: 0x2D10D, offset: 0x2D10D, size: 0x8, addend: 0x0, symName: __ZNKSt3__110unique_ptrINS_11__tree_nodeINS_12__value_typeINS_12basic_stringIcNS_11char_traitsIcEENS_9allocatorIcEEEEiEEPvEENS_22__tree_node_destructorINS6_ISB_EEEEE3getB8ue170006Ev, symObjAddr: 0x19A20, symBinAddr: 0x10001A04C, symSize: 0x28 }
  - { offsetInCU: 0x2D133, offset: 0x2D133, size: 0x8, addend: 0x0, symName: __ZNSt3__110unique_ptrINS_11__tree_nodeINS_12__value_typeINS_12basic_stringIcNS_11char_traitsIcEENS_9allocatorIcEEEEiEEPvEENS_22__tree_node_destructorINS6_ISB_EEEEE7releaseB8ue170006Ev, symObjAddr: 0x19A48, symBinAddr: 0x10001A074, symSize: 0x44 }
  - { offsetInCU: 0x2D168, offset: 0x2D168, size: 0x8, addend: 0x0, symName: __ZNSt3__110unique_ptrINS_11__tree_nodeINS_12__value_typeINS_12basic_stringIcNS_11char_traitsIcEENS_9allocatorIcEEEEiEEPvEENS_22__tree_node_destructorINS6_ISB_EEEEED1B8ue170006Ev, symObjAddr: 0x19A8C, symBinAddr: 0x10001A0B8, symSize: 0x2C }
  - { offsetInCU: 0x2D192, offset: 0x2D192, size: 0x8, addend: 0x0, symName: __ZNSt3__115__tree_iteratorINS_12__value_typeINS_12basic_stringIcNS_11char_traitsIcEENS_9allocatorIcEEEEiEEPNS_11__tree_nodeIS8_PvEElEC1B8ue170006ESC_, symObjAddr: 0x19AB8, symBinAddr: 0x10001A0E4, symSize: 0x34 }
  - { offsetInCU: 0x2D1CB, offset: 0x2D1CB, size: 0x8, addend: 0x0, symName: __ZNSt3__14pairINS_15__tree_iteratorINS_12__value_typeINS_12basic_stringIcNS_11char_traitsIcEENS_9allocatorIcEEEEiEEPNS_11__tree_nodeIS9_PvEElEEbEC1B8ue170006ERKSE_RKb, symObjAddr: 0x19AEC, symBinAddr: 0x10001A118, symSize: 0x3C }
  - { offsetInCU: 0x2D211, offset: 0x2D211, size: 0x8, addend: 0x0, symName: __ZNSt3__121__tree_const_iteratorINS_12__value_typeINS_12basic_stringIcNS_11char_traitsIcEENS_9allocatorIcEEEEiEEPNS_11__tree_nodeIS8_PvEElEC1B8ue170006ENS_15__tree_iteratorIS8_SC_lEE, symObjAddr: 0x19B28, symBinAddr: 0x10001A154, symSize: 0x34 }
  - { offsetInCU: 0x2D24A, offset: 0x2D24A, size: 0x8, addend: 0x0, symName: __ZNKSt3__121__tree_const_iteratorINS_12__value_typeINS_12basic_stringIcNS_11char_traitsIcEENS_9allocatorIcEEEEiEEPNS_11__tree_nodeIS8_PvEElEdeB8ue170006Ev, symObjAddr: 0x19B5C, symBinAddr: 0x10001A188, symSize: 0x28 }
  - { offsetInCU: 0x2D270, offset: 0x2D270, size: 0x8, addend: 0x0, symName: __ZNSt3__16__treeINS_12__value_typeINS_12basic_stringIcNS_11char_traitsIcEENS_9allocatorIcEEEEiEENS_19__map_value_compareIS7_S8_NS_4lessIS7_EELb1EEENS5_IS8_EEE5beginB8ue170006Ev, symObjAddr: 0x19B84, symBinAddr: 0x10001A1B0, symSize: 0x34 }
  - { offsetInCU: 0x2D296, offset: 0x2D296, size: 0x8, addend: 0x0, symName: __ZNSt3__121__tree_const_iteratorINS_12__value_typeINS_12basic_stringIcNS_11char_traitsIcEENS_9allocatorIcEEEEiEEPNS_11__tree_nodeIS8_PvEElEmmB8ue170006Ev, symObjAddr: 0x19BB8, symBinAddr: 0x10001A1E4, symSize: 0x38 }
  - { offsetInCU: 0x2D2BC, offset: 0x2D2BC, size: 0x8, addend: 0x0, symName: __ZNKSt3__121__tree_const_iteratorINS_12__value_typeINS_12basic_stringIcNS_11char_traitsIcEENS_9allocatorIcEEEEiEEPNS_11__tree_nodeIS8_PvEElE8__get_npB8ue170006Ev, symObjAddr: 0x19C2C, symBinAddr: 0x10001A258, symSize: 0x18 }
  - { offsetInCU: 0x2D2E2, offset: 0x2D2E2, size: 0x8, addend: 0x0, symName: __ZNSt3__121__tree_const_iteratorINS_12__value_typeINS_12basic_stringIcNS_11char_traitsIcEENS_9allocatorIcEEEEiEEPNS_11__tree_nodeIS8_PvEElEC2B8ue170006ENS_15__tree_iteratorIS8_SC_lEE, symObjAddr: 0x19C44, symBinAddr: 0x10001A270, symSize: 0x20 }
  - { offsetInCU: 0x2D31B, offset: 0x2D31B, size: 0x8, addend: 0x0, symName: __ZNSt3__121__tree_const_iteratorINS_12__value_typeINS_12basic_stringIcNS_11char_traitsIcEENS_9allocatorIcEEEEiEEPNS_11__tree_nodeIS8_PvEElEppB8ue170006Ev, symObjAddr: 0x19D40, symBinAddr: 0x10001A36C, symSize: 0x38 }
  - { offsetInCU: 0x2D341, offset: 0x2D341, size: 0x8, addend: 0x0, symName: __ZNSt3__122__tree_node_destructorINS_9allocatorINS_11__tree_nodeINS_12__value_typeINS_12basic_stringIcNS_11char_traitsIcEENS1_IcEEEEiEEPvEEEEEC1B8ue170006ERSC_b, symObjAddr: 0x19D78, symBinAddr: 0x10001A3A4, symSize: 0x48 }
  - { offsetInCU: 0x2D38F, offset: 0x2D38F, size: 0x8, addend: 0x0, symName: __ZNSt3__110unique_ptrINS_11__tree_nodeINS_12__value_typeINS_12basic_stringIcNS_11char_traitsIcEENS_9allocatorIcEEEEiEEPvEENS_22__tree_node_destructorINS6_ISB_EEEEEC1B8ue170006ILb1EvEEPSB_NS_16__dependent_typeINS_27__unique_ptr_deleter_sfinaeISE_EEXT_EE20__good_rval_ref_typeE, symObjAddr: 0x19DC0, symBinAddr: 0x10001A3EC, symSize: 0x3C }
  - { offsetInCU: 0x2D3E0, offset: 0x2D3E0, size: 0x8, addend: 0x0, symName: __ZNSt3__116allocator_traitsINS_9allocatorINS_11__tree_nodeINS_12__value_typeINS_12basic_stringIcNS_11char_traitsIcEENS1_IcEEEEiEEPvEEEEE9constructB8ue170006INS_4pairIKS8_iEEJRKSH_EvEEvRSC_PT_DpOT0_, symObjAddr: 0x19DFC, symBinAddr: 0x10001A428, symSize: 0x34 }
  - { offsetInCU: 0x2D437, offset: 0x2D437, size: 0x8, addend: 0x0, symName: __ZNKSt3__110unique_ptrINS_11__tree_nodeINS_12__value_typeINS_12basic_stringIcNS_11char_traitsIcEENS_9allocatorIcEEEEiEEPvEENS_22__tree_node_destructorINS6_ISB_EEEEEptB8ue170006Ev, symObjAddr: 0x19E30, symBinAddr: 0x10001A45C, symSize: 0x28 }
  - { offsetInCU: 0x2D45D, offset: 0x2D45D, size: 0x8, addend: 0x0, symName: __ZNSt3__110unique_ptrINS_11__tree_nodeINS_12__value_typeINS_12basic_stringIcNS_11char_traitsIcEENS_9allocatorIcEEEEiEEPvEENS_22__tree_node_destructorINS6_ISB_EEEEE11get_deleterB8ue170006Ev, symObjAddr: 0x19E58, symBinAddr: 0x10001A484, symSize: 0x24 }
  - { offsetInCU: 0x2D483, offset: 0x2D483, size: 0x8, addend: 0x0, symName: __ZNSt3__122__tree_node_destructorINS_9allocatorINS_11__tree_nodeINS_12__value_typeINS_12basic_stringIcNS_11char_traitsIcEENS1_IcEEEEiEEPvEEEEEC2B8ue170006ERSC_b, symObjAddr: 0x19E7C, symBinAddr: 0x10001A4A8, symSize: 0x38 }
  - { offsetInCU: 0x2D4CB, offset: 0x2D4CB, size: 0x8, addend: 0x0, symName: __ZNSt3__110unique_ptrINS_11__tree_nodeINS_12__value_typeINS_12basic_stringIcNS_11char_traitsIcEENS_9allocatorIcEEEEiEEPvEENS_22__tree_node_destructorINS6_ISB_EEEEEC2B8ue170006ILb1EvEEPSB_NS_16__dependent_typeINS_27__unique_ptr_deleter_sfinaeISE_EEXT_EE20__good_rval_ref_typeE, symObjAddr: 0x19EB4, symBinAddr: 0x10001A4E0, symSize: 0x5C }
  - { offsetInCU: 0x2D51C, offset: 0x2D51C, size: 0x8, addend: 0x0, symName: __ZNSt3__117__compressed_pairIPNS_11__tree_nodeINS_12__value_typeINS_12basic_stringIcNS_11char_traitsIcEENS_9allocatorIcEEEEiEEPvEENS_22__tree_node_destructorINS6_ISB_EEEEEC1B8ue170006IRSC_SF_EEOT_OT0_, symObjAddr: 0x19F10, symBinAddr: 0x10001A53C, symSize: 0x3C }
  - { offsetInCU: 0x2D574, offset: 0x2D574, size: 0x8, addend: 0x0, symName: __ZNSt3__117__compressed_pairIPNS_11__tree_nodeINS_12__value_typeINS_12basic_stringIcNS_11char_traitsIcEENS_9allocatorIcEEEEiEEPvEENS_22__tree_node_destructorINS6_ISB_EEEEEC2B8ue170006IRSC_SF_EEOT_OT0_, symObjAddr: 0x19F4C, symBinAddr: 0x10001A578, symSize: 0x48 }
  - { offsetInCU: 0x2D5CC, offset: 0x2D5CC, size: 0x8, addend: 0x0, symName: __ZNSt3__122__compressed_pair_elemINS_22__tree_node_destructorINS_9allocatorINS_11__tree_nodeINS_12__value_typeINS_12basic_stringIcNS_11char_traitsIcEENS2_IcEEEEiEEPvEEEEEELi1ELb0EEC2B8ue170006ISE_vEEOT_, symObjAddr: 0x19F94, symBinAddr: 0x10001A5C0, symSize: 0x24 }
  - { offsetInCU: 0x2D60E, offset: 0x2D60E, size: 0x8, addend: 0x0, symName: __ZNSt3__19allocatorINS_11__tree_nodeINS_12__value_typeINS_12basic_stringIcNS_11char_traitsIcEENS0_IcEEEEiEEPvEEE9constructB8ue170006INS_4pairIKS7_iEEJRKSF_EEEvPT_DpOT0_, symObjAddr: 0x19FB8, symBinAddr: 0x10001A5E4, symSize: 0x30 }
  - { offsetInCU: 0x2D664, offset: 0x2D664, size: 0x8, addend: 0x0, symName: __ZNSt3__14pairIKNS_12basic_stringIcNS_11char_traitsIcEENS_9allocatorIcEEEEiEC1B8ue170006ERKS8_, symObjAddr: 0x19FE8, symBinAddr: 0x10001A614, symSize: 0x34 }
  - { offsetInCU: 0x2D698, offset: 0x2D698, size: 0x8, addend: 0x0, symName: __ZNSt3__14pairIKNS_12basic_stringIcNS_11char_traitsIcEENS_9allocatorIcEEEEiEC2B8ue170006ERKS8_, symObjAddr: 0x1A01C, symBinAddr: 0x10001A648, symSize: 0x40 }
  - { offsetInCU: 0x2D6CC, offset: 0x2D6CC, size: 0x8, addend: 0x0, symName: __ZNKSt3__117__compressed_pairIPNS_11__tree_nodeINS_12__value_typeINS_12basic_stringIcNS_11char_traitsIcEENS_9allocatorIcEEEEiEEPvEENS_22__tree_node_destructorINS6_ISB_EEEEE5firstB8ue170006Ev, symObjAddr: 0x1A05C, symBinAddr: 0x10001A688, symSize: 0x24 }
  - { offsetInCU: 0x2D6F2, offset: 0x2D6F2, size: 0x8, addend: 0x0, symName: __ZNSt3__117__compressed_pairIPNS_11__tree_nodeINS_12__value_typeINS_12basic_stringIcNS_11char_traitsIcEENS_9allocatorIcEEEEiEEPvEENS_22__tree_node_destructorINS6_ISB_EEEEE6secondB8ue170006Ev, symObjAddr: 0x1A080, symBinAddr: 0x10001A6AC, symSize: 0x28 }
  - { offsetInCU: 0x2D718, offset: 0x2D718, size: 0x8, addend: 0x0, symName: __ZNSt3__122__compressed_pair_elemINS_22__tree_node_destructorINS_9allocatorINS_11__tree_nodeINS_12__value_typeINS_12basic_stringIcNS_11char_traitsIcEENS2_IcEEEEiEEPvEEEEEELi1ELb0EE5__getB8ue170006Ev, symObjAddr: 0x1A0A8, symBinAddr: 0x10001A6D4, symSize: 0x14 }
  - { offsetInCU: 0x2D73E, offset: 0x2D73E, size: 0x8, addend: 0x0, symName: __ZNSt3__117__compressed_pairIPNS_11__tree_nodeINS_12__value_typeINS_12basic_stringIcNS_11char_traitsIcEENS_9allocatorIcEEEEiEEPvEENS_22__tree_node_destructorINS6_ISB_EEEEE5firstB8ue170006Ev, symObjAddr: 0x1A0BC, symBinAddr: 0x10001A6E8, symSize: 0x24 }
  - { offsetInCU: 0x2D764, offset: 0x2D764, size: 0x8, addend: 0x0, symName: __ZNSt3__110unique_ptrINS_11__tree_nodeINS_12__value_typeINS_12basic_stringIcNS_11char_traitsIcEENS_9allocatorIcEEEEiEEPvEENS_22__tree_node_destructorINS6_ISB_EEEEED2B8ue170006Ev, symObjAddr: 0x1A0E0, symBinAddr: 0x10001A70C, symSize: 0x30 }
  - { offsetInCU: 0x2D78E, offset: 0x2D78E, size: 0x8, addend: 0x0, symName: __ZNSt3__110unique_ptrINS_11__tree_nodeINS_12__value_typeINS_12basic_stringIcNS_11char_traitsIcEENS_9allocatorIcEEEEiEEPvEENS_22__tree_node_destructorINS6_ISB_EEEEE5resetB8ue170006EPSB_, symObjAddr: 0x1A110, symBinAddr: 0x10001A73C, symSize: 0x78 }
  - { offsetInCU: 0x2D7D2, offset: 0x2D7D2, size: 0x8, addend: 0x0, symName: __ZNSt3__122__tree_node_destructorINS_9allocatorINS_11__tree_nodeINS_12__value_typeINS_12basic_stringIcNS_11char_traitsIcEENS1_IcEEEEiEEPvEEEEEclB8ue170006EPSB_, symObjAddr: 0x1A188, symBinAddr: 0x10001A7B4, symSize: 0xAC }
  - { offsetInCU: 0x2D807, offset: 0x2D807, size: 0x8, addend: 0x0, symName: __ZNSt3__115__tree_iteratorINS_12__value_typeINS_12basic_stringIcNS_11char_traitsIcEENS_9allocatorIcEEEEiEEPNS_11__tree_nodeIS8_PvEElEC2B8ue170006ESC_, symObjAddr: 0x1A234, symBinAddr: 0x10001A860, symSize: 0x20 }
  - { offsetInCU: 0x2D840, offset: 0x2D840, size: 0x8, addend: 0x0, symName: __ZNSt3__14pairINS_15__tree_iteratorINS_12__value_typeINS_12basic_stringIcNS_11char_traitsIcEENS_9allocatorIcEEEEiEEPNS_11__tree_nodeIS9_PvEElEEbEC2B8ue170006ERKSE_RKb, symObjAddr: 0x1A254, symBinAddr: 0x10001A880, symSize: 0x38 }
  - { offsetInCU: 0x2D886, offset: 0x2D886, size: 0x8, addend: 0x0, symName: __ZNSt3__120__map_const_iteratorINS_21__tree_const_iteratorINS_12__value_typeINS_12basic_stringIcNS_11char_traitsIcEENS_9allocatorIcEEEEiEEPNS_11__tree_nodeIS9_PvEElEEEC2B8ue170006ESE_, symObjAddr: 0x1A28C, symBinAddr: 0x10001A8B8, symSize: 0x20 }
  - { offsetInCU: 0x2D8BF, offset: 0x2D8BF, size: 0x8, addend: 0x0, symName: __ZNKSt3__121__tree_const_iteratorINS_12__value_typeINS_12basic_stringIcNS_11char_traitsIcEENS_9allocatorIcEEEEiEEPNS_11__tree_nodeIS8_PvEElEptB8ue170006Ev, symObjAddr: 0x1A2AC, symBinAddr: 0x10001A8D8, symSize: 0x2C }
  - { offsetInCU: 0x2D8E5, offset: 0x2D8E5, size: 0x8, addend: 0x0, symName: __ZNSt3__114pointer_traitsIPKNS_12__value_typeINS_12basic_stringIcNS_11char_traitsIcEENS_9allocatorIcEEEEiEEE10pointer_toB8ue170006ERS9_, symObjAddr: 0x1A2D8, symBinAddr: 0x10001A904, symSize: 0x14 }
  - { offsetInCU: 0x2D908, offset: 0x2D908, size: 0x8, addend: 0x0, symName: __ZNKSt3__16__treeINS_12__value_typeINS_12basic_stringIcNS_11char_traitsIcEENS_9allocatorIcEEEEiEENS_19__map_value_compareIS7_S8_NS_4lessIS7_EELb1EEENS5_IS8_EEE5beginB8ue170006Ev, symObjAddr: 0x1A2EC, symBinAddr: 0x10001A918, symSize: 0x34 }
  - { offsetInCU: 0x2D92E, offset: 0x2D92E, size: 0x8, addend: 0x0, symName: __ZNKSt3__16__treeINS_12__value_typeINS_12basic_stringIcNS_11char_traitsIcEENS_9allocatorIcEEEEiEENS_19__map_value_compareIS7_S8_NS_4lessIS7_EELb1EEENS5_IS8_EEE12__begin_nodeB8ue170006Ev, symObjAddr: 0x1A320, symBinAddr: 0x10001A94C, symSize: 0x14 }
  - { offsetInCU: 0x2D954, offset: 0x2D954, size: 0x8, addend: 0x0, symName: __ZNSt3__121__tree_const_iteratorINS_12__value_typeINS_12basic_stringIcNS_11char_traitsIcEENS_9allocatorIcEEEEiEEPNS_11__tree_nodeIS8_PvEElEC1B8ue170006EPNS_15__tree_end_nodeIPNS_16__tree_node_baseISA_EEEE, symObjAddr: 0x1A334, symBinAddr: 0x10001A960, symSize: 0x34 }
  - { offsetInCU: 0x2D98D, offset: 0x2D98D, size: 0x8, addend: 0x0, symName: __ZNSt3__121__tree_const_iteratorINS_12__value_typeINS_12basic_stringIcNS_11char_traitsIcEENS_9allocatorIcEEEEiEEPNS_11__tree_nodeIS8_PvEElEC2B8ue170006EPNS_15__tree_end_nodeIPNS_16__tree_node_baseISA_EEEE, symObjAddr: 0x1A368, symBinAddr: 0x10001A994, symSize: 0x20 }
  - { offsetInCU: 0x2D9C6, offset: 0x2D9C6, size: 0x8, addend: 0x0, symName: __ZNKSt3__16__treeINS_12__value_typeINS_12basic_stringIcNS_11char_traitsIcEENS_9allocatorIcEEEEiEENS_19__map_value_compareIS7_S8_NS_4lessIS7_EELb1EEENS5_IS8_EEE3endB8ue170006Ev, symObjAddr: 0x1A388, symBinAddr: 0x10001A9B4, symSize: 0x34 }
  - { offsetInCU: 0x2D9EC, offset: 0x2D9EC, size: 0x8, addend: 0x0, symName: __ZNSt3__16vectorINS_12basic_stringIcNS_11char_traitsIcEENS_9allocatorIcEEEENS4_IS6_EEE9__end_capB8ue170006Ev, symObjAddr: 0x1A3BC, symBinAddr: 0x10001A9E8, symSize: 0x28 }
  - { offsetInCU: 0x2DA12, offset: 0x2DA12, size: 0x8, addend: 0x0, symName: __ZNSt3__16vectorINS_12basic_stringIcNS_11char_traitsIcEENS_9allocatorIcEEEENS4_IS6_EEE22__construct_one_at_endB8ue170006IJRKS6_EEEvDpOT_, symObjAddr: 0x1A3E4, symBinAddr: 0x10001AA10, symSize: 0x98 }
  - { offsetInCU: 0x2DA61, offset: 0x2DA61, size: 0x8, addend: 0x0, symName: __ZNSt3__16vectorINS_12basic_stringIcNS_11char_traitsIcEENS_9allocatorIcEEEENS4_IS6_EEE21__push_back_slow_pathIRKS6_EEvOT_, symObjAddr: 0x1A47C, symBinAddr: 0x10001AAA8, symSize: 0xE0 }
  - { offsetInCU: 0x2DABF, offset: 0x2DABF, size: 0x8, addend: 0x0, symName: __ZNSt3__117__compressed_pairIPNS_12basic_stringIcNS_11char_traitsIcEENS_9allocatorIcEEEENS4_IS6_EEE5firstB8ue170006Ev, symObjAddr: 0x1A55C, symBinAddr: 0x10001AB88, symSize: 0x24 }
  - { offsetInCU: 0x2DB01, offset: 0x2DB01, size: 0x8, addend: 0x0, symName: __ZNSt3__16vectorINS_12basic_stringIcNS_11char_traitsIcEENS_9allocatorIcEEEENS4_IS6_EEE21_ConstructTransactionC1B8ue170006ERS8_m, symObjAddr: 0x1A580, symBinAddr: 0x10001ABAC, symSize: 0x3C }
  - { offsetInCU: 0x2DB49, offset: 0x2DB49, size: 0x8, addend: 0x0, symName: __ZNSt3__16vectorINS_12basic_stringIcNS_11char_traitsIcEENS_9allocatorIcEEEENS4_IS6_EEE7__allocB8ue170006Ev, symObjAddr: 0x1A5BC, symBinAddr: 0x10001ABE8, symSize: 0x28 }
  - { offsetInCU: 0x2DB6F, offset: 0x2DB6F, size: 0x8, addend: 0x0, symName: __ZNSt3__16vectorINS_12basic_stringIcNS_11char_traitsIcEENS_9allocatorIcEEEENS4_IS6_EEE21_ConstructTransactionD1B8ue170006Ev, symObjAddr: 0x1A5E4, symBinAddr: 0x10001AC10, symSize: 0x2C }
  - { offsetInCU: 0x2DB99, offset: 0x2DB99, size: 0x8, addend: 0x0, symName: __ZNSt3__16vectorINS_12basic_stringIcNS_11char_traitsIcEENS_9allocatorIcEEEENS4_IS6_EEE21_ConstructTransactionC2B8ue170006ERS8_m, symObjAddr: 0x1A610, symBinAddr: 0x10001AC3C, symSize: 0x4C }
  - { offsetInCU: 0x2DBE1, offset: 0x2DBE1, size: 0x8, addend: 0x0, symName: __ZNSt3__117__compressed_pairIPNS_12basic_stringIcNS_11char_traitsIcEENS_9allocatorIcEEEENS4_IS6_EEE6secondB8ue170006Ev, symObjAddr: 0x1A65C, symBinAddr: 0x10001AC88, symSize: 0x24 }
  - { offsetInCU: 0x2DC07, offset: 0x2DC07, size: 0x8, addend: 0x0, symName: __ZNSt3__16vectorINS_12basic_stringIcNS_11char_traitsIcEENS_9allocatorIcEEEENS4_IS6_EEE21_ConstructTransactionD2B8ue170006Ev, symObjAddr: 0x1A680, symBinAddr: 0x10001ACAC, symSize: 0x20 }
  - { offsetInCU: 0x2DC31, offset: 0x2DC31, size: 0x8, addend: 0x0, symName: __ZNKSt3__16vectorINS_12basic_stringIcNS_11char_traitsIcEENS_9allocatorIcEEEENS4_IS6_EEE11__recommendB8ue170006Em, symObjAddr: 0x1A6A0, symBinAddr: 0x10001ACCC, symSize: 0xB4 }
  - { offsetInCU: 0x2DC86, offset: 0x2DC86, size: 0x8, addend: 0x0, symName: __ZNSt3__114__split_bufferINS_12basic_stringIcNS_11char_traitsIcEENS_9allocatorIcEEEERNS4_IS6_EEEC1EmmS8_, symObjAddr: 0x1A754, symBinAddr: 0x10001AD80, symSize: 0x44 }
  - { offsetInCU: 0x2DCDC, offset: 0x2DCDC, size: 0x8, addend: 0x0, symName: __ZNSt3__114__split_bufferINS_12basic_stringIcNS_11char_traitsIcEENS_9allocatorIcEEEERNS4_IS6_EEED1Ev, symObjAddr: 0x1A8A8, symBinAddr: 0x10001AED4, symSize: 0x2C }
  - { offsetInCU: 0x2DD08, offset: 0x2DD08, size: 0x8, addend: 0x0, symName: __ZNKSt3__16vectorINS_12basic_stringIcNS_11char_traitsIcEENS_9allocatorIcEEEENS4_IS6_EEE8max_sizeEv, symObjAddr: 0x1A8D4, symBinAddr: 0x10001AF00, symSize: 0x74 }
  - { offsetInCU: 0x2DD30, offset: 0x2DD30, size: 0x8, addend: 0x0, symName: __ZNKSt3__16vectorINS_12basic_stringIcNS_11char_traitsIcEENS_9allocatorIcEEEENS4_IS6_EEE20__throw_length_errorB8ue170006Ev, symObjAddr: 0x1A948, symBinAddr: 0x10001AF74, symSize: 0x1C }
  - { offsetInCU: 0x2DD56, offset: 0x2DD56, size: 0x8, addend: 0x0, symName: __ZNKSt3__16vectorINS_12basic_stringIcNS_11char_traitsIcEENS_9allocatorIcEEEENS4_IS6_EEE8capacityB8ue170006Ev, symObjAddr: 0x1A964, symBinAddr: 0x10001AF90, symSize: 0x40 }
  - { offsetInCU: 0x2DD7C, offset: 0x2DD7C, size: 0x8, addend: 0x0, symName: __ZNKSt3__16vectorINS_12basic_stringIcNS_11char_traitsIcEENS_9allocatorIcEEEENS4_IS6_EEE7__allocB8ue170006Ev, symObjAddr: 0x1A9A4, symBinAddr: 0x10001AFD0, symSize: 0x28 }
  - { offsetInCU: 0x2DDA2, offset: 0x2DDA2, size: 0x8, addend: 0x0, symName: __ZNKSt3__117__compressed_pairIPNS_12basic_stringIcNS_11char_traitsIcEENS_9allocatorIcEEEENS4_IS6_EEE6secondB8ue170006Ev, symObjAddr: 0x1A9CC, symBinAddr: 0x10001AFF8, symSize: 0x24 }
  - { offsetInCU: 0x2DDC8, offset: 0x2DDC8, size: 0x8, addend: 0x0, symName: __ZNKSt3__122__compressed_pair_elemINS_9allocatorINS_12basic_stringIcNS_11char_traitsIcEENS1_IcEEEEEELi1ELb1EE5__getB8ue170006Ev, symObjAddr: 0x1A9F0, symBinAddr: 0x10001B01C, symSize: 0x14 }
  - { offsetInCU: 0x2DDEE, offset: 0x2DDEE, size: 0x8, addend: 0x0, symName: __ZNKSt3__16vectorINS_12basic_stringIcNS_11char_traitsIcEENS_9allocatorIcEEEENS4_IS6_EEE9__end_capB8ue170006Ev, symObjAddr: 0x1AA04, symBinAddr: 0x10001B030, symSize: 0x28 }
  - { offsetInCU: 0x2DE14, offset: 0x2DE14, size: 0x8, addend: 0x0, symName: __ZNKSt3__117__compressed_pairIPNS_12basic_stringIcNS_11char_traitsIcEENS_9allocatorIcEEEENS4_IS6_EEE5firstB8ue170006Ev, symObjAddr: 0x1AA2C, symBinAddr: 0x10001B058, symSize: 0x24 }
  - { offsetInCU: 0x2DE3A, offset: 0x2DE3A, size: 0x8, addend: 0x0, symName: __ZNSt3__114__split_bufferINS_12basic_stringIcNS_11char_traitsIcEENS_9allocatorIcEEEERNS4_IS6_EEEC2EmmS8_, symObjAddr: 0x1AA50, symBinAddr: 0x10001B07C, symSize: 0xE0 }
  - { offsetInCU: 0x2DEAD, offset: 0x2DEAD, size: 0x8, addend: 0x0, symName: __ZNSt3__117__compressed_pairIPNS_12basic_stringIcNS_11char_traitsIcEENS_9allocatorIcEEEERNS4_IS6_EEEC1B8ue170006IDnS9_EEOT_OT0_, symObjAddr: 0x1AB30, symBinAddr: 0x10001B15C, symSize: 0x3C }
  - { offsetInCU: 0x2DF05, offset: 0x2DF05, size: 0x8, addend: 0x0, symName: __ZNSt3__114__split_bufferINS_12basic_stringIcNS_11char_traitsIcEENS_9allocatorIcEEEERNS4_IS6_EEE7__allocB8ue170006Ev, symObjAddr: 0x1ABAC, symBinAddr: 0x10001B1D8, symSize: 0x28 }
  - { offsetInCU: 0x2DF2B, offset: 0x2DF2B, size: 0x8, addend: 0x0, symName: __ZNSt3__114__split_bufferINS_12basic_stringIcNS_11char_traitsIcEENS_9allocatorIcEEEERNS4_IS6_EEE9__end_capB8ue170006Ev, symObjAddr: 0x1ABD4, symBinAddr: 0x10001B200, symSize: 0x28 }
  - { offsetInCU: 0x2DF51, offset: 0x2DF51, size: 0x8, addend: 0x0, symName: __ZNSt3__117__compressed_pairIPNS_12basic_stringIcNS_11char_traitsIcEENS_9allocatorIcEEEERNS4_IS6_EEEC2B8ue170006IDnS9_EEOT_OT0_, symObjAddr: 0x1ABFC, symBinAddr: 0x10001B228, symSize: 0x48 }
  - { offsetInCU: 0x2DFA9, offset: 0x2DFA9, size: 0x8, addend: 0x0, symName: __ZNSt3__122__compressed_pair_elemIRNS_9allocatorINS_12basic_stringIcNS_11char_traitsIcEENS1_IcEEEEEELi1ELb0EEC2B8ue170006IS8_vEEOT_, symObjAddr: 0x1AC44, symBinAddr: 0x10001B270, symSize: 0x20 }
  - { offsetInCU: 0x2DFEB, offset: 0x2DFEB, size: 0x8, addend: 0x0, symName: __ZNSt3__117__compressed_pairIPNS_12basic_stringIcNS_11char_traitsIcEENS_9allocatorIcEEEERNS4_IS6_EEE6secondB8ue170006Ev, symObjAddr: 0x1AC64, symBinAddr: 0x10001B290, symSize: 0x28 }
  - { offsetInCU: 0x2E011, offset: 0x2E011, size: 0x8, addend: 0x0, symName: __ZNSt3__122__compressed_pair_elemIRNS_9allocatorINS_12basic_stringIcNS_11char_traitsIcEENS1_IcEEEEEELi1ELb0EE5__getB8ue170006Ev, symObjAddr: 0x1AC8C, symBinAddr: 0x10001B2B8, symSize: 0x18 }
  - { offsetInCU: 0x2E037, offset: 0x2E037, size: 0x8, addend: 0x0, symName: __ZNSt3__117__compressed_pairIPNS_12basic_stringIcNS_11char_traitsIcEENS_9allocatorIcEEEERNS4_IS6_EEE5firstB8ue170006Ev, symObjAddr: 0x1ACA4, symBinAddr: 0x10001B2D0, symSize: 0x24 }
  - { offsetInCU: 0x2E05D, offset: 0x2E05D, size: 0x8, addend: 0x0, symName: __ZNKSt3__16vectorINS_12basic_stringIcNS_11char_traitsIcEENS_9allocatorIcEEEENS4_IS6_EEE17__annotate_deleteB8ue170006Ev, symObjAddr: 0x1ACC8, symBinAddr: 0x10001B2F4, symSize: 0xD4 }
  - { offsetInCU: 0x2E083, offset: 0x2E083, size: 0x8, addend: 0x0, symName: __ZNSt3__116reverse_iteratorIPNS_12basic_stringIcNS_11char_traitsIcEENS_9allocatorIcEEEEEC1B8ue170006ES7_, symObjAddr: 0x1AED0, symBinAddr: 0x10001B4FC, symSize: 0x34 }
  - { offsetInCU: 0x2E0BB, offset: 0x2E0BB, size: 0x8, addend: 0x0, symName: __ZNKSt3__116reverse_iteratorIPNS_12basic_stringIcNS_11char_traitsIcEENS_9allocatorIcEEEEE4baseB8ue170006Ev, symObjAddr: 0x1AF04, symBinAddr: 0x10001B530, symSize: 0x18 }
  - { offsetInCU: 0x2E0E1, offset: 0x2E0E1, size: 0x8, addend: 0x0, symName: __ZNKSt3__16vectorINS_12basic_stringIcNS_11char_traitsIcEENS_9allocatorIcEEEENS4_IS6_EEE14__annotate_newB8ue170006Em, symObjAddr: 0x1AF58, symBinAddr: 0x10001B584, symSize: 0xC8 }
  - { offsetInCU: 0x2E116, offset: 0x2E116, size: 0x8, addend: 0x0, symName: __ZNKSt3__16vectorINS_12basic_stringIcNS_11char_traitsIcEENS_9allocatorIcEEEENS4_IS6_EEE31__annotate_contiguous_containerB8ue170006EPKvSA_SA_SA_, symObjAddr: 0x1B020, symBinAddr: 0x10001B64C, symSize: 0x20 }
  - { offsetInCU: 0x2E168, offset: 0x2E168, size: 0x8, addend: 0x0, symName: __ZNKSt3__16vectorINS_12basic_stringIcNS_11char_traitsIcEENS_9allocatorIcEEEENS4_IS6_EEE4dataB8ue170006Ev, symObjAddr: 0x1B040, symBinAddr: 0x10001B66C, symSize: 0x28 }
  - { offsetInCU: 0x2E18E, offset: 0x2E18E, size: 0x8, addend: 0x0, symName: __ZNSt3__129_AllocatorDestroyRangeReverseINS_9allocatorINS_12basic_stringIcNS_11char_traitsIcEENS1_IcEEEEEENS_16reverse_iteratorIPS6_EEEC1B8ue170006ERS7_RSA_SD_, symObjAddr: 0x1B0B4, symBinAddr: 0x10001B6E0, symSize: 0x44 }
  - { offsetInCU: 0x2E1E5, offset: 0x2E1E5, size: 0x8, addend: 0x0, symName: __ZNKSt3__116reverse_iteratorIPNS_12basic_stringIcNS_11char_traitsIcEENS_9allocatorIcEEEEEdeB8ue170006Ev, symObjAddr: 0x1B164, symBinAddr: 0x10001B790, symSize: 0x28 }
  - { offsetInCU: 0x2E219, offset: 0x2E219, size: 0x8, addend: 0x0, symName: __ZNSt3__116reverse_iteratorIPNS_12basic_stringIcNS_11char_traitsIcEENS_9allocatorIcEEEEEppB8ue170006Ev, symObjAddr: 0x1B18C, symBinAddr: 0x10001B7B8, symSize: 0x20 }
  - { offsetInCU: 0x2E23F, offset: 0x2E23F, size: 0x8, addend: 0x0, symName: __ZNSt3__128__exception_guard_exceptionsINS_29_AllocatorDestroyRangeReverseINS_9allocatorINS_12basic_stringIcNS_11char_traitsIcEENS2_IcEEEEEENS_16reverse_iteratorIPS7_EEEEE10__completeB8ue170006Ev, symObjAddr: 0x1B1AC, symBinAddr: 0x10001B7D8, symSize: 0x1C }
  - { offsetInCU: 0x2E265, offset: 0x2E265, size: 0x8, addend: 0x0, symName: __ZNSt3__128__exception_guard_exceptionsINS_29_AllocatorDestroyRangeReverseINS_9allocatorINS_12basic_stringIcNS_11char_traitsIcEENS2_IcEEEEEENS_16reverse_iteratorIPS7_EEEEED1B8ue170006Ev, symObjAddr: 0x1B1C8, symBinAddr: 0x10001B7F4, symSize: 0x2C }
  - { offsetInCU: 0x2E28F, offset: 0x2E28F, size: 0x8, addend: 0x0, symName: __ZNSt3__128__exception_guard_exceptionsINS_29_AllocatorDestroyRangeReverseINS_9allocatorINS_12basic_stringIcNS_11char_traitsIcEENS2_IcEEEEEENS_16reverse_iteratorIPS7_EEEEEC1B8ue170006ESC_, symObjAddr: 0x1B1F4, symBinAddr: 0x10001B820, symSize: 0x34 }
  - { offsetInCU: 0x2E2C8, offset: 0x2E2C8, size: 0x8, addend: 0x0, symName: __ZNSt3__128__exception_guard_exceptionsINS_29_AllocatorDestroyRangeReverseINS_9allocatorINS_12basic_stringIcNS_11char_traitsIcEENS2_IcEEEEEENS_16reverse_iteratorIPS7_EEEEEC2B8ue170006ESC_, symObjAddr: 0x1B228, symBinAddr: 0x10001B854, symSize: 0x30 }
  - { offsetInCU: 0x2E301, offset: 0x2E301, size: 0x8, addend: 0x0, symName: __ZNSt3__129_AllocatorDestroyRangeReverseINS_9allocatorINS_12basic_stringIcNS_11char_traitsIcEENS1_IcEEEEEENS_16reverse_iteratorIPS6_EEEC2B8ue170006ERS7_RSA_SD_, symObjAddr: 0x1B258, symBinAddr: 0x10001B884, symSize: 0x38 }
  - { offsetInCU: 0x2E35E, offset: 0x2E35E, size: 0x8, addend: 0x0, symName: __ZNSt3__119__to_address_helperINS_16reverse_iteratorIPNS_12basic_stringIcNS_11char_traitsIcEENS_9allocatorIcEEEEEEvE6__callB8ue170006ERKS9_, symObjAddr: 0x1B290, symBinAddr: 0x10001B8BC, symSize: 0x4C }
  - { offsetInCU: 0x2E381, offset: 0x2E381, size: 0x8, addend: 0x0, symName: __ZNKSt3__116reverse_iteratorIPNS_12basic_stringIcNS_11char_traitsIcEENS_9allocatorIcEEEEEptB8ue170006Ev, symObjAddr: 0x1B2DC, symBinAddr: 0x10001B908, symSize: 0x24 }
  - { offsetInCU: 0x2E3A7, offset: 0x2E3A7, size: 0x8, addend: 0x0, symName: __ZNSt3__128__exception_guard_exceptionsINS_29_AllocatorDestroyRangeReverseINS_9allocatorINS_12basic_stringIcNS_11char_traitsIcEENS2_IcEEEEEENS_16reverse_iteratorIPS7_EEEEED2B8ue170006Ev, symObjAddr: 0x1B300, symBinAddr: 0x10001B92C, symSize: 0x48 }
  - { offsetInCU: 0x2E3D1, offset: 0x2E3D1, size: 0x8, addend: 0x0, symName: __ZNKSt3__129_AllocatorDestroyRangeReverseINS_9allocatorINS_12basic_stringIcNS_11char_traitsIcEENS1_IcEEEEEENS_16reverse_iteratorIPS6_EEEclB8ue170006Ev, symObjAddr: 0x1B348, symBinAddr: 0x10001B974, symSize: 0xB4 }
  - { offsetInCU: 0x2E3F8, offset: 0x2E3F8, size: 0x8, addend: 0x0, symName: __ZNSt3__116reverse_iteratorINS0_IPNS_12basic_stringIcNS_11char_traitsIcEENS_9allocatorIcEEEEEEEC1B8ue170006ES8_, symObjAddr: 0x1B46C, symBinAddr: 0x10001BA98, symSize: 0x3C }
  - { offsetInCU: 0x2E430, offset: 0x2E430, size: 0x8, addend: 0x0, symName: __ZNSt3__116reverse_iteratorINS0_IPNS_12basic_stringIcNS_11char_traitsIcEENS_9allocatorIcEEEEEEEppB8ue170006Ev, symObjAddr: 0x1B52C, symBinAddr: 0x10001BB58, symSize: 0x30 }
  - { offsetInCU: 0x2E456, offset: 0x2E456, size: 0x8, addend: 0x0, symName: __ZNKSt3__116reverse_iteratorINS0_IPNS_12basic_stringIcNS_11char_traitsIcEENS_9allocatorIcEEEEEEE4baseB8ue170006Ev, symObjAddr: 0x1B55C, symBinAddr: 0x10001BB88, symSize: 0x24 }
  - { offsetInCU: 0x2E482, offset: 0x2E482, size: 0x8, addend: 0x0, symName: __ZNSt3__119__to_address_helperINS_16reverse_iteratorINS1_IPNS_12basic_stringIcNS_11char_traitsIcEENS_9allocatorIcEEEEEEEEvE6__callB8ue170006ERKSA_, symObjAddr: 0x1B580, symBinAddr: 0x10001BBAC, symSize: 0x4C }
  - { offsetInCU: 0x2E4A5, offset: 0x2E4A5, size: 0x8, addend: 0x0, symName: __ZNKSt3__116reverse_iteratorINS0_IPNS_12basic_stringIcNS_11char_traitsIcEENS_9allocatorIcEEEEEEEptB8ue170006Ev, symObjAddr: 0x1B5CC, symBinAddr: 0x10001BBF8, symSize: 0x24 }
  - { offsetInCU: 0x2E4CB, offset: 0x2E4CB, size: 0x8, addend: 0x0, symName: __ZNKSt3__116reverse_iteratorINS0_IPNS_12basic_stringIcNS_11char_traitsIcEENS_9allocatorIcEEEEEEEdeB8ue170006Ev, symObjAddr: 0x1B5F0, symBinAddr: 0x10001BC1C, symSize: 0x34 }
  - { offsetInCU: 0x2E4FF, offset: 0x2E4FF, size: 0x8, addend: 0x0, symName: __ZNSt3__116reverse_iteratorIPNS_12basic_stringIcNS_11char_traitsIcEENS_9allocatorIcEEEEEmmB8ue170006Ev, symObjAddr: 0x1B624, symBinAddr: 0x10001BC50, symSize: 0x20 }
  - { offsetInCU: 0x2E525, offset: 0x2E525, size: 0x8, addend: 0x0, symName: __ZNSt3__116reverse_iteratorINS0_IPNS_12basic_stringIcNS_11char_traitsIcEENS_9allocatorIcEEEEEEEC2B8ue170006ES8_, symObjAddr: 0x1B644, symBinAddr: 0x10001BC70, symSize: 0x2C }
  - { offsetInCU: 0x2E55D, offset: 0x2E55D, size: 0x8, addend: 0x0, symName: __ZNSt3__116reverse_iteratorIPNS_12basic_stringIcNS_11char_traitsIcEENS_9allocatorIcEEEEEC2B8ue170006ES7_, symObjAddr: 0x1B670, symBinAddr: 0x10001BC9C, symSize: 0x28 }
  - { offsetInCU: 0x2E595, offset: 0x2E595, size: 0x8, addend: 0x0, symName: __ZNSt3__114__split_bufferINS_12basic_stringIcNS_11char_traitsIcEENS_9allocatorIcEEEERNS4_IS6_EEED2Ev, symObjAddr: 0x1B698, symBinAddr: 0x10001BCC4, symSize: 0x80 }
  - { offsetInCU: 0x2E5C1, offset: 0x2E5C1, size: 0x8, addend: 0x0, symName: __ZNSt3__114__split_bufferINS_12basic_stringIcNS_11char_traitsIcEENS_9allocatorIcEEEERNS4_IS6_EEE5clearB8ue170006Ev, symObjAddr: 0x1B718, symBinAddr: 0x10001BD44, symSize: 0x28 }
  - { offsetInCU: 0x2E5E7, offset: 0x2E5E7, size: 0x8, addend: 0x0, symName: __ZNKSt3__114__split_bufferINS_12basic_stringIcNS_11char_traitsIcEENS_9allocatorIcEEEERNS4_IS6_EEE8capacityB8ue170006Ev, symObjAddr: 0x1B740, symBinAddr: 0x10001BD6C, symSize: 0x40 }
  - { offsetInCU: 0x2E60D, offset: 0x2E60D, size: 0x8, addend: 0x0, symName: __ZNSt3__114__split_bufferINS_12basic_stringIcNS_11char_traitsIcEENS_9allocatorIcEEEERNS4_IS6_EEE17__destruct_at_endB8ue170006EPS6_, symObjAddr: 0x1B780, symBinAddr: 0x10001BDAC, symSize: 0x2C }
  - { offsetInCU: 0x2E641, offset: 0x2E641, size: 0x8, addend: 0x0, symName: __ZNSt3__114__split_bufferINS_12basic_stringIcNS_11char_traitsIcEENS_9allocatorIcEEEERNS4_IS6_EEE17__destruct_at_endB8ue170006EPS6_NS_17integral_constantIbLb0EEE, symObjAddr: 0x1B7AC, symBinAddr: 0x10001BDD8, symSize: 0x94 }
  - { offsetInCU: 0x2E681, offset: 0x2E681, size: 0x8, addend: 0x0, symName: __ZNKSt3__114__split_bufferINS_12basic_stringIcNS_11char_traitsIcEENS_9allocatorIcEEEERNS4_IS6_EEE9__end_capB8ue170006Ev, symObjAddr: 0x1B840, symBinAddr: 0x10001BE6C, symSize: 0x28 }
  - { offsetInCU: 0x2E6A7, offset: 0x2E6A7, size: 0x8, addend: 0x0, symName: __ZNKSt3__117__compressed_pairIPNS_12basic_stringIcNS_11char_traitsIcEENS_9allocatorIcEEEERNS4_IS6_EEE5firstB8ue170006Ev, symObjAddr: 0x1B868, symBinAddr: 0x10001BE94, symSize: 0x24 }
  - { offsetInCU: 0x2E6CD, offset: 0x2E6CD, size: 0x8, addend: 0x0, symName: __ZNSt3__114basic_ifstreamIcNS_11char_traitsIcEEED2Ev, symObjAddr: 0x1B88C, symBinAddr: 0x10001BEB8, symSize: 0x9C }
  - { offsetInCU: 0x2E707, offset: 0x2E707, size: 0x8, addend: 0x0, symName: __ZTv0_n24_NSt3__114basic_ifstreamIcNS_11char_traitsIcEEED1Ev, symObjAddr: 0x1B928, symBinAddr: 0x10001BF54, symSize: 0x28 }
  - { offsetInCU: 0x2E741, offset: 0x2E741, size: 0x8, addend: 0x0, symName: __ZNKSt3__113basic_ostreamIcNS_11char_traitsIcEEE6sentrycvbB8ue170006Ev, symObjAddr: 0x1BB44, symBinAddr: 0x10001C170, symSize: 0x1C }
  - { offsetInCU: 0x2E767, offset: 0x2E767, size: 0x8, addend: 0x0, symName: __ZNSt3__119ostreambuf_iteratorIcNS_11char_traitsIcEEEC1B8ue170006ERNS_13basic_ostreamIcS2_EE, symObjAddr: 0x1BDA8, symBinAddr: 0x10001C3D4, symSize: 0x34 }
  - { offsetInCU: 0x2E79F, offset: 0x2E79F, size: 0x8, addend: 0x0, symName: __ZNKSt3__18ios_base5flagsB8ue170006Ev, symObjAddr: 0x1BDDC, symBinAddr: 0x10001C408, symSize: 0x18 }
  - { offsetInCU: 0x2E7C7, offset: 0x2E7C7, size: 0x8, addend: 0x0, symName: __ZNKSt3__19basic_iosIcNS_11char_traitsIcEEE4fillB8ue170006Ev, symObjAddr: 0x1BDF4, symBinAddr: 0x10001C420, symSize: 0x64 }
  - { offsetInCU: 0x2E7EF, offset: 0x2E7EF, size: 0x8, addend: 0x0, symName: __ZNKSt3__119ostreambuf_iteratorIcNS_11char_traitsIcEEE6failedB8ue170006Ev, symObjAddr: 0x1BE58, symBinAddr: 0x10001C484, symSize: 0x24 }
  - { offsetInCU: 0x2E815, offset: 0x2E815, size: 0x8, addend: 0x0, symName: __ZNSt3__115basic_streambufIcNS_11char_traitsIcEEE5sputnB8ue170006EPKcl, symObjAddr: 0x1BE7C, symBinAddr: 0x10001C4A8, symSize: 0x3C }
  - { offsetInCU: 0x2E857, offset: 0x2E857, size: 0x8, addend: 0x0, symName: __ZNSt3__119ostreambuf_iteratorIcNS_11char_traitsIcEEEC2B8ue170006ERNS_13basic_ostreamIcS2_EE, symObjAddr: 0x1BEB8, symBinAddr: 0x10001C4E4, symSize: 0x68 }
  - { offsetInCU: 0x2E88F, offset: 0x2E88F, size: 0x8, addend: 0x0, symName: __ZNKSt3__19basic_iosIcNS_11char_traitsIcEEE5widenB8ue170006Ec, symObjAddr: 0x1BF20, symBinAddr: 0x10001C54C, symSize: 0x8C }
  - { offsetInCU: 0x2E8C6, offset: 0x2E8C6, size: 0x8, addend: 0x0, symName: __ZNKSt3__15ctypeIcE5widenB8ue170006Ec, symObjAddr: 0x1BFAC, symBinAddr: 0x10001C5D8, symSize: 0x38 }
  - { offsetInCU: 0x2E8FB, offset: 0x2E8FB, size: 0x8, addend: 0x0, symName: __ZNSt3__16vectorI5tokenNS_9allocatorIS1_EEEC2ERKS4_, symObjAddr: 0x1BFE4, symBinAddr: 0x10001C610, symSize: 0x94 }
  - { offsetInCU: 0x2E941, offset: 0x2E941, size: 0x8, addend: 0x0, symName: __ZNSt3__116allocator_traitsINS_9allocatorI5tokenEEE37select_on_container_copy_constructionB8ue170006IS3_vvEES3_RKS3_, symObjAddr: 0x1C078, symBinAddr: 0x10001C6A4, symSize: 0x10 }
  - { offsetInCU: 0x2E970, offset: 0x2E970, size: 0x8, addend: 0x0, symName: __ZNKSt3__16vectorI5tokenNS_9allocatorIS1_EEE7__allocB8ue170006Ev, symObjAddr: 0x1C088, symBinAddr: 0x10001C6B4, symSize: 0x28 }
  - { offsetInCU: 0x2E99C, offset: 0x2E99C, size: 0x8, addend: 0x0, symName: __ZNSt3__117__compressed_pairIP5tokenNS_9allocatorIS1_EEEC1B8ue170006IDnS4_EEOT_OT0_, symObjAddr: 0x1C0B0, symBinAddr: 0x10001C6DC, symSize: 0x3C }
  - { offsetInCU: 0x2E9F4, offset: 0x2E9F4, size: 0x8, addend: 0x0, symName: __ZNSt3__16vectorI5tokenNS_9allocatorIS1_EEE16__init_with_sizeB8ue170006IPS1_S6_EEvT_T0_m, symObjAddr: 0x1C0EC, symBinAddr: 0x10001C718, symSize: 0xC0 }
  - { offsetInCU: 0x2EA68, offset: 0x2EA68, size: 0x8, addend: 0x0, symName: __ZNKSt3__117__compressed_pairIP5tokenNS_9allocatorIS1_EEE6secondB8ue170006Ev, symObjAddr: 0x1C1AC, symBinAddr: 0x10001C7D8, symSize: 0x24 }
  - { offsetInCU: 0x2EA8E, offset: 0x2EA8E, size: 0x8, addend: 0x0, symName: __ZNKSt3__122__compressed_pair_elemINS_9allocatorI5tokenEELi1ELb1EE5__getB8ue170006Ev, symObjAddr: 0x1C1D0, symBinAddr: 0x10001C7FC, symSize: 0x14 }
  - { offsetInCU: 0x2EAB4, offset: 0x2EAB4, size: 0x8, addend: 0x0, symName: __ZNSt3__117__compressed_pairIP5tokenNS_9allocatorIS1_EEEC2B8ue170006IDnS4_EEOT_OT0_, symObjAddr: 0x1C1E4, symBinAddr: 0x10001C810, symSize: 0x44 }
  - { offsetInCU: 0x2EB0C, offset: 0x2EB0C, size: 0x8, addend: 0x0, symName: __ZNSt3__122__compressed_pair_elemIP5tokenLi0ELb0EEC2B8ue170006IDnvEEOT_, symObjAddr: 0x1C228, symBinAddr: 0x10001C854, symSize: 0x1C }
  - { offsetInCU: 0x2EB4E, offset: 0x2EB4E, size: 0x8, addend: 0x0, symName: __ZNSt3__122__compressed_pair_elemINS_9allocatorI5tokenEELi1ELb1EEC2B8ue170006IS3_vEEOT_, symObjAddr: 0x1C244, symBinAddr: 0x10001C870, symSize: 0x18 }
  - { offsetInCU: 0x2EB90, offset: 0x2EB90, size: 0x8, addend: 0x0, symName: __ZNSt3__16vectorI5tokenNS_9allocatorIS1_EEE16__destroy_vectorC1B8ue170006ERS4_, symObjAddr: 0x1C29C, symBinAddr: 0x10001C8C8, symSize: 0x34 }
  - { offsetInCU: 0x2EBC9, offset: 0x2EBC9, size: 0x8, addend: 0x0, symName: __ZNSt3__16vectorI5tokenNS_9allocatorIS1_EEE11__vallocateB8ue170006Em, symObjAddr: 0x1C2D0, symBinAddr: 0x10001C8FC, symSize: 0xB4 }
  - { offsetInCU: 0x2EC0D, offset: 0x2EC0D, size: 0x8, addend: 0x0, symName: __ZNSt3__16vectorI5tokenNS_9allocatorIS1_EEE18__construct_at_endIPS1_S6_EEvT_T0_m, symObjAddr: 0x1C384, symBinAddr: 0x10001C9B0, symSize: 0x94 }
  - { offsetInCU: 0x2EC83, offset: 0x2EC83, size: 0x8, addend: 0x0, symName: __ZNSt3__128__exception_guard_exceptionsINS_6vectorI5tokenNS_9allocatorIS2_EEE16__destroy_vectorEE10__completeB8ue170006Ev, symObjAddr: 0x1C418, symBinAddr: 0x10001CA44, symSize: 0x1C }
  - { offsetInCU: 0x2ECA9, offset: 0x2ECA9, size: 0x8, addend: 0x0, symName: __ZNSt3__128__exception_guard_exceptionsINS_6vectorI5tokenNS_9allocatorIS2_EEE16__destroy_vectorEED1B8ue170006Ev, symObjAddr: 0x1C434, symBinAddr: 0x10001CA60, symSize: 0x2C }
  - { offsetInCU: 0x2ECD3, offset: 0x2ECD3, size: 0x8, addend: 0x0, symName: __ZNSt3__128__exception_guard_exceptionsINS_6vectorI5tokenNS_9allocatorIS2_EEE16__destroy_vectorEEC1B8ue170006ES6_, symObjAddr: 0x1C460, symBinAddr: 0x10001CA8C, symSize: 0x34 }
  - { offsetInCU: 0x2ED0B, offset: 0x2ED0B, size: 0x8, addend: 0x0, symName: __ZNSt3__128__exception_guard_exceptionsINS_6vectorI5tokenNS_9allocatorIS2_EEE16__destroy_vectorEEC2B8ue170006ES6_, symObjAddr: 0x1C494, symBinAddr: 0x10001CAC0, symSize: 0x24 }
  - { offsetInCU: 0x2ED43, offset: 0x2ED43, size: 0x8, addend: 0x0, symName: __ZNSt3__16vectorI5tokenNS_9allocatorIS1_EEE16__destroy_vectorC2B8ue170006ERS4_, symObjAddr: 0x1C4B8, symBinAddr: 0x10001CAE4, symSize: 0x20 }
  - { offsetInCU: 0x2ED7C, offset: 0x2ED7C, size: 0x8, addend: 0x0, symName: __ZNKSt3__16vectorI5tokenNS_9allocatorIS1_EEE8max_sizeEv, symObjAddr: 0x1C4D8, symBinAddr: 0x10001CB04, symSize: 0x74 }
  - { offsetInCU: 0x2EDA4, offset: 0x2EDA4, size: 0x8, addend: 0x0, symName: __ZNKSt3__16vectorI5tokenNS_9allocatorIS1_EEE20__throw_length_errorB8ue170006Ev, symObjAddr: 0x1C54C, symBinAddr: 0x10001CB78, symSize: 0x1C }
  - { offsetInCU: 0x2EDCA, offset: 0x2EDCA, size: 0x8, addend: 0x0, symName: __ZNSt3__16vectorI5tokenNS_9allocatorIS1_EEE7__allocB8ue170006Ev, symObjAddr: 0x1C5A8, symBinAddr: 0x10001CBD4, symSize: 0x28 }
  - { offsetInCU: 0x2EDF0, offset: 0x2EDF0, size: 0x8, addend: 0x0, symName: __ZNSt3__16vectorI5tokenNS_9allocatorIS1_EEE9__end_capB8ue170006Ev, symObjAddr: 0x1C5D0, symBinAddr: 0x10001CBFC, symSize: 0x28 }
  - { offsetInCU: 0x2EE16, offset: 0x2EE16, size: 0x8, addend: 0x0, symName: __ZNKSt3__16vectorI5tokenNS_9allocatorIS1_EEE14__annotate_newB8ue170006Em, symObjAddr: 0x1C5F8, symBinAddr: 0x10001CC24, symSize: 0xC8 }
  - { offsetInCU: 0x2EE4B, offset: 0x2EE4B, size: 0x8, addend: 0x0, symName: __ZNSt3__116allocator_traitsINS_9allocatorI5tokenEEE8max_sizeB8ue170006IS3_vEEmRKS3_, symObjAddr: 0x1C6C0, symBinAddr: 0x10001CCEC, symSize: 0x24 }
  - { offsetInCU: 0x2EE79, offset: 0x2EE79, size: 0x8, addend: 0x0, symName: __ZNKSt3__19allocatorI5tokenE8max_sizeB8ue170006Ev, symObjAddr: 0x1C6E4, symBinAddr: 0x10001CD10, symSize: 0x20 }
  - { offsetInCU: 0x2EE9F, offset: 0x2EE9F, size: 0x8, addend: 0x0, symName: __ZNSt3__19allocatorI5tokenE8allocateB8ue170006Em, symObjAddr: 0x1C704, symBinAddr: 0x10001CD30, symSize: 0x8C }
  - { offsetInCU: 0x2EED3, offset: 0x2EED3, size: 0x8, addend: 0x0, symName: __ZNSt3__117__compressed_pairIP5tokenNS_9allocatorIS1_EEE6secondB8ue170006Ev, symObjAddr: 0x1C790, symBinAddr: 0x10001CDBC, symSize: 0x24 }
  - { offsetInCU: 0x2EEF9, offset: 0x2EEF9, size: 0x8, addend: 0x0, symName: __ZNSt3__122__compressed_pair_elemINS_9allocatorI5tokenEELi1ELb1EE5__getB8ue170006Ev, symObjAddr: 0x1C7B4, symBinAddr: 0x10001CDE0, symSize: 0x14 }
  - { offsetInCU: 0x2EF1F, offset: 0x2EF1F, size: 0x8, addend: 0x0, symName: __ZNSt3__117__compressed_pairIP5tokenNS_9allocatorIS1_EEE5firstB8ue170006Ev, symObjAddr: 0x1C7C8, symBinAddr: 0x10001CDF4, symSize: 0x24 }
  - { offsetInCU: 0x2EF45, offset: 0x2EF45, size: 0x8, addend: 0x0, symName: __ZNSt3__122__compressed_pair_elemIP5tokenLi0ELb0EE5__getB8ue170006Ev, symObjAddr: 0x1C7EC, symBinAddr: 0x10001CE18, symSize: 0x14 }
  - { offsetInCU: 0x2EF6B, offset: 0x2EF6B, size: 0x8, addend: 0x0, symName: __ZNKSt3__16vectorI5tokenNS_9allocatorIS1_EEE31__annotate_contiguous_containerB8ue170006EPKvS6_S6_S6_, symObjAddr: 0x1C800, symBinAddr: 0x10001CE2C, symSize: 0x20 }
  - { offsetInCU: 0x2EFBD, offset: 0x2EFBD, size: 0x8, addend: 0x0, symName: __ZNKSt3__16vectorI5tokenNS_9allocatorIS1_EEE4dataB8ue170006Ev, symObjAddr: 0x1C820, symBinAddr: 0x10001CE4C, symSize: 0x28 }
  - { offsetInCU: 0x2EFE3, offset: 0x2EFE3, size: 0x8, addend: 0x0, symName: __ZNKSt3__16vectorI5tokenNS_9allocatorIS1_EEE8capacityB8ue170006Ev, symObjAddr: 0x1C848, symBinAddr: 0x10001CE74, symSize: 0x40 }
  - { offsetInCU: 0x2F009, offset: 0x2F009, size: 0x8, addend: 0x0, symName: __ZNKSt3__16vectorI5tokenNS_9allocatorIS1_EEE9__end_capB8ue170006Ev, symObjAddr: 0x1C89C, symBinAddr: 0x10001CEC8, symSize: 0x28 }
  - { offsetInCU: 0x2F02F, offset: 0x2F02F, size: 0x8, addend: 0x0, symName: __ZNKSt3__117__compressed_pairIP5tokenNS_9allocatorIS1_EEE5firstB8ue170006Ev, symObjAddr: 0x1C8C4, symBinAddr: 0x10001CEF0, symSize: 0x24 }
  - { offsetInCU: 0x2F055, offset: 0x2F055, size: 0x8, addend: 0x0, symName: __ZNKSt3__122__compressed_pair_elemIP5tokenLi0ELb0EE5__getB8ue170006Ev, symObjAddr: 0x1C8E8, symBinAddr: 0x10001CF14, symSize: 0x14 }
  - { offsetInCU: 0x2F097, offset: 0x2F097, size: 0x8, addend: 0x0, symName: __ZNSt3__16vectorI5tokenNS_9allocatorIS1_EEE21_ConstructTransactionC1B8ue170006ERS4_m, symObjAddr: 0x1C8FC, symBinAddr: 0x10001CF28, symSize: 0x3C }
  - { offsetInCU: 0x2F0DF, offset: 0x2F0DF, size: 0x8, addend: 0x0, symName: __ZNSt3__16vectorI5tokenNS_9allocatorIS1_EEE21_ConstructTransactionD1B8ue170006Ev, symObjAddr: 0x1C9B8, symBinAddr: 0x10001CFE4, symSize: 0x2C }
  - { offsetInCU: 0x2F109, offset: 0x2F109, size: 0x8, addend: 0x0, symName: __ZNSt3__16vectorI5tokenNS_9allocatorIS1_EEE21_ConstructTransactionC2B8ue170006ERS4_m, symObjAddr: 0x1C9E4, symBinAddr: 0x10001D010, symSize: 0x4C }
  - { offsetInCU: 0x2F16E, offset: 0x2F16E, size: 0x8, addend: 0x0, symName: __ZNSt3__14pairIP5tokenS2_EC1B8ue170006ERKS2_S5_, symObjAddr: 0x1CC38, symBinAddr: 0x10001D264, symSize: 0x3C }
  - { offsetInCU: 0x2F1B4, offset: 0x2F1B4, size: 0x8, addend: 0x0, symName: __ZNSt3__14pairIP5tokenS2_EC2B8ue170006ERKS2_S5_, symObjAddr: 0x1CC74, symBinAddr: 0x10001D2A0, symSize: 0x34 }
  - { offsetInCU: 0x2F1FA, offset: 0x2F1FA, size: 0x8, addend: 0x0, symName: __ZNSt3__129_AllocatorDestroyRangeReverseINS_9allocatorI5tokenEEPS2_EC1B8ue170006ERS3_RS4_S7_, symObjAddr: 0x1CCF4, symBinAddr: 0x10001D320, symSize: 0x44 }
  - { offsetInCU: 0x2F251, offset: 0x2F251, size: 0x8, addend: 0x0, symName: __ZNSt3__116allocator_traitsINS_9allocatorI5tokenEEE9constructB8ue170006IS2_JRS2_EvEEvRS3_PT_DpOT0_, symObjAddr: 0x1CD38, symBinAddr: 0x10001D364, symSize: 0x34 }
  - { offsetInCU: 0x2F2A8, offset: 0x2F2A8, size: 0x8, addend: 0x0, symName: __ZNSt3__128__exception_guard_exceptionsINS_29_AllocatorDestroyRangeReverseINS_9allocatorI5tokenEEPS3_EEE10__completeB8ue170006Ev, symObjAddr: 0x1CD6C, symBinAddr: 0x10001D398, symSize: 0x1C }
  - { offsetInCU: 0x2F2CE, offset: 0x2F2CE, size: 0x8, addend: 0x0, symName: __ZNSt3__128__exception_guard_exceptionsINS_29_AllocatorDestroyRangeReverseINS_9allocatorI5tokenEEPS3_EEED1B8ue170006Ev, symObjAddr: 0x1CD88, symBinAddr: 0x10001D3B4, symSize: 0x2C }
  - { offsetInCU: 0x2F2F8, offset: 0x2F2F8, size: 0x8, addend: 0x0, symName: __ZNSt3__128__exception_guard_exceptionsINS_29_AllocatorDestroyRangeReverseINS_9allocatorI5tokenEEPS3_EEEC1B8ue170006ES6_, symObjAddr: 0x1CDB4, symBinAddr: 0x10001D3E0, symSize: 0x34 }
  - { offsetInCU: 0x2F331, offset: 0x2F331, size: 0x8, addend: 0x0, symName: __ZNSt3__128__exception_guard_exceptionsINS_29_AllocatorDestroyRangeReverseINS_9allocatorI5tokenEEPS3_EEEC2B8ue170006ES6_, symObjAddr: 0x1CDE8, symBinAddr: 0x10001D414, symSize: 0x30 }
  - { offsetInCU: 0x2F36A, offset: 0x2F36A, size: 0x8, addend: 0x0, symName: __ZNSt3__129_AllocatorDestroyRangeReverseINS_9allocatorI5tokenEEPS2_EC2B8ue170006ERS3_RS4_S7_, symObjAddr: 0x1CE18, symBinAddr: 0x10001D444, symSize: 0x38 }
  - { offsetInCU: 0x2F3C1, offset: 0x2F3C1, size: 0x8, addend: 0x0, symName: __ZNSt3__19allocatorI5tokenE9constructB8ue170006IS1_JRS1_EEEvPT_DpOT0_, symObjAddr: 0x1CE50, symBinAddr: 0x10001D47C, symSize: 0x30 }
  - { offsetInCU: 0x2F417, offset: 0x2F417, size: 0x8, addend: 0x0, symName: __ZNSt3__128__exception_guard_exceptionsINS_29_AllocatorDestroyRangeReverseINS_9allocatorI5tokenEEPS3_EEED2B8ue170006Ev, symObjAddr: 0x1CE80, symBinAddr: 0x10001D4AC, symSize: 0x48 }
  - { offsetInCU: 0x2F441, offset: 0x2F441, size: 0x8, addend: 0x0, symName: __ZNKSt3__129_AllocatorDestroyRangeReverseINS_9allocatorI5tokenEEPS2_EclB8ue170006Ev, symObjAddr: 0x1CEC8, symBinAddr: 0x10001D4F4, symSize: 0x68 }
  - { offsetInCU: 0x2F467, offset: 0x2F467, size: 0x8, addend: 0x0, symName: __ZNSt3__116reverse_iteratorIP5tokenEC1B8ue170006ES2_, symObjAddr: 0x1CFA0, symBinAddr: 0x10001D5CC, symSize: 0x34 }
  - { offsetInCU: 0x2F49F, offset: 0x2F49F, size: 0x8, addend: 0x0, symName: __ZNSt3__116allocator_traitsINS_9allocatorI5tokenEEE7destroyB8ue170006IS2_vEEvRS3_PT_, symObjAddr: 0x1D01C, symBinAddr: 0x10001D648, symSize: 0x2C }
  - { offsetInCU: 0x2F4DC, offset: 0x2F4DC, size: 0x8, addend: 0x0, symName: __ZNSt3__116reverse_iteratorIP5tokenEppB8ue170006Ev, symObjAddr: 0x1D06C, symBinAddr: 0x10001D698, symSize: 0x20 }
  - { offsetInCU: 0x2F502, offset: 0x2F502, size: 0x8, addend: 0x0, symName: __ZNKSt3__116reverse_iteratorIP5tokenE4baseB8ue170006Ev, symObjAddr: 0x1D08C, symBinAddr: 0x10001D6B8, symSize: 0x18 }
  - { offsetInCU: 0x2F528, offset: 0x2F528, size: 0x8, addend: 0x0, symName: __ZNSt3__19allocatorI5tokenE7destroyB8ue170006EPS1_, symObjAddr: 0x1D0A4, symBinAddr: 0x10001D6D0, symSize: 0x28 }
  - { offsetInCU: 0x2F562, offset: 0x2F562, size: 0x8, addend: 0x0, symName: __ZNSt3__119__to_address_helperINS_16reverse_iteratorIP5tokenEEvE6__callB8ue170006ERKS4_, symObjAddr: 0x1D0CC, symBinAddr: 0x10001D6F8, symSize: 0x4C }
  - { offsetInCU: 0x2F585, offset: 0x2F585, size: 0x8, addend: 0x0, symName: __ZNKSt3__116reverse_iteratorIP5tokenEptB8ue170006Ev, symObjAddr: 0x1D118, symBinAddr: 0x10001D744, symSize: 0x24 }
  - { offsetInCU: 0x2F5AB, offset: 0x2F5AB, size: 0x8, addend: 0x0, symName: __ZNKSt3__116reverse_iteratorIP5tokenEdeB8ue170006Ev, symObjAddr: 0x1D13C, symBinAddr: 0x10001D768, symSize: 0x28 }
  - { offsetInCU: 0x2F5DF, offset: 0x2F5DF, size: 0x8, addend: 0x0, symName: __ZNSt3__116reverse_iteratorIP5tokenEC2B8ue170006ES2_, symObjAddr: 0x1D164, symBinAddr: 0x10001D790, symSize: 0x28 }
  - { offsetInCU: 0x2F617, offset: 0x2F617, size: 0x8, addend: 0x0, symName: __ZNSt3__118__unwrap_iter_implIP5tokenLb1EE8__unwrapB8ue170006ES2_, symObjAddr: 0x1D18C, symBinAddr: 0x10001D7B8, symSize: 0x24 }
  - { offsetInCU: 0x2F63A, offset: 0x2F63A, size: 0x8, addend: 0x0, symName: __ZNSt3__118__unwrap_iter_implIP5tokenLb1EE8__rewrapB8ue170006ES2_S2_, symObjAddr: 0x1D1B0, symBinAddr: 0x10001D7DC, symSize: 0x58 }
  - { offsetInCU: 0x2F66B, offset: 0x2F66B, size: 0x8, addend: 0x0, symName: __ZNSt3__16vectorI5tokenNS_9allocatorIS1_EEE21_ConstructTransactionD2B8ue170006Ev, symObjAddr: 0x1D208, symBinAddr: 0x10001D834, symSize: 0x20 }
  - { offsetInCU: 0x2F695, offset: 0x2F695, size: 0x8, addend: 0x0, symName: __ZNSt3__128__exception_guard_exceptionsINS_6vectorI5tokenNS_9allocatorIS2_EEE16__destroy_vectorEED2B8ue170006Ev, symObjAddr: 0x1D228, symBinAddr: 0x10001D854, symSize: 0x48 }
  - { offsetInCU: 0x2F6BF, offset: 0x2F6BF, size: 0x8, addend: 0x0, symName: __ZNSt3__16vectorI5tokenNS_9allocatorIS1_EEE16__destroy_vectorclB8ue170006Ev, symObjAddr: 0x1D270, symBinAddr: 0x10001D89C, symSize: 0x90 }
  - { offsetInCU: 0x2F6E5, offset: 0x2F6E5, size: 0x8, addend: 0x0, symName: __ZNSt3__16vectorI5tokenNS_9allocatorIS1_EEE7__clearB8ue170006Ev, symObjAddr: 0x1D300, symBinAddr: 0x10001D92C, symSize: 0x28 }
  - { offsetInCU: 0x2F70B, offset: 0x2F70B, size: 0x8, addend: 0x0, symName: __ZNKSt3__16vectorI5tokenNS_9allocatorIS1_EEE17__annotate_deleteB8ue170006Ev, symObjAddr: 0x1D328, symBinAddr: 0x10001D954, symSize: 0xD4 }
  - { offsetInCU: 0x2F731, offset: 0x2F731, size: 0x8, addend: 0x0, symName: __ZNSt3__116allocator_traitsINS_9allocatorI5tokenEEE10deallocateB8ue170006ERS3_PS2_m, symObjAddr: 0x1D3FC, symBinAddr: 0x10001DA28, symSize: 0x34 }
  - { offsetInCU: 0x2F773, offset: 0x2F773, size: 0x8, addend: 0x0, symName: __ZNSt3__16vectorI5tokenNS_9allocatorIS1_EEE22__base_destruct_at_endB8ue170006EPS1_, symObjAddr: 0x1D430, symBinAddr: 0x10001DA5C, symSize: 0xA0 }
  - { offsetInCU: 0x2F7B7, offset: 0x2F7B7, size: 0x8, addend: 0x0, symName: __ZNSt3__19allocatorI5tokenE10deallocateB8ue170006EPS1_m, symObjAddr: 0x1D4D0, symBinAddr: 0x10001DAFC, symSize: 0x74 }
  - { offsetInCU: 0x2F7F9, offset: 0x2F7F9, size: 0x8, addend: 0x0, symName: __ZNSt3__16vectorI5tokenNS_9allocatorIS1_EEED2B8ue170006Ev, symObjAddr: 0x1D544, symBinAddr: 0x10001DB70, symSize: 0x3C }
  - { offsetInCU: 0x2F823, offset: 0x2F823, size: 0x8, addend: 0x0, symName: __ZNSt3__112basic_stringIcNS_11char_traitsIcEENS_9allocatorIcEEEC2B8ue170006ILi0EEEPKc, symObjAddr: 0x1D580, symBinAddr: 0x10001DBAC, symSize: 0x58 }
  - { offsetInCU: 0x2F862, offset: 0x2F862, size: 0x8, addend: 0x0, symName: __ZNSt3__117__compressed_pairINS_12basic_stringIcNS_11char_traitsIcEENS_9allocatorIcEEE5__repES5_EC1B8ue170006INS_18__default_init_tagESA_EEOT_OT0_, symObjAddr: 0x1D5D8, symBinAddr: 0x10001DC04, symSize: 0x3C }
  - { offsetInCU: 0x2F8BA, offset: 0x2F8BA, size: 0x8, addend: 0x0, symName: __ZNSt3__117__compressed_pairINS_12basic_stringIcNS_11char_traitsIcEENS_9allocatorIcEEE5__repES5_EC2B8ue170006INS_18__default_init_tagESA_EEOT_OT0_, symObjAddr: 0x1D614, symBinAddr: 0x10001DC40, symSize: 0x3C }
  - { offsetInCU: 0x2F912, offset: 0x2F912, size: 0x8, addend: 0x0, symName: __ZNSt3__122__compressed_pair_elemINS_9allocatorIcEELi1ELb1EEC2B8ue170006ENS_18__default_init_tagE, symObjAddr: 0x1D650, symBinAddr: 0x10001DC7C, symSize: 0x2C }
  - { offsetInCU: 0x2F946, offset: 0x2F946, size: 0x8, addend: 0x0, symName: __ZNSt3__19allocatorIcEC2B8ue170006Ev, symObjAddr: 0x1D67C, symBinAddr: 0x10001DCA8, symSize: 0x2C }
  - { offsetInCU: 0x2F970, offset: 0x2F970, size: 0x8, addend: 0x0, symName: __ZNSt3__116__non_trivial_ifILb1ENS_9allocatorIcEEEC2B8ue170006Ev, symObjAddr: 0x1D6A8, symBinAddr: 0x10001DCD4, symSize: 0x14 }
  - { offsetInCU: 0x2F99A, offset: 0x2F99A, size: 0x8, addend: 0x0, symName: __ZNSt3__112basic_stringIcNS_11char_traitsIcEENS_9allocatorIcEEEC2B8ue170006Ev, symObjAddr: 0x1D6BC, symBinAddr: 0x10001DCE8, symSize: 0x3C }
  - { offsetInCU: 0x2F9C4, offset: 0x2F9C4, size: 0x8, addend: 0x0, symName: __ZNKSt3__19basic_iosIcNS_11char_traitsIcEEE4failB8ue170006Ev, symObjAddr: 0x1D6F8, symBinAddr: 0x10001DD24, symSize: 0x28 }
  - { offsetInCU: 0x2F9EA, offset: 0x2F9EA, size: 0x8, addend: 0x0, symName: __ZNKSt3__18ios_base4failB8ue170006Ev, symObjAddr: 0x1D720, symBinAddr: 0x10001DD4C, symSize: 0x28 }
  - { offsetInCU: 0x2FA12, offset: 0x2FA12, size: 0x8, addend: 0x0, symName: __ZNSt3__16vectorIcNS_9allocatorIcEEEC2B8ue170006Ev, symObjAddr: 0x1D748, symBinAddr: 0x10001DD74, symSize: 0x44 }
  - { offsetInCU: 0x2FA3C, offset: 0x2FA3C, size: 0x8, addend: 0x0, symName: __ZNSt3__117__compressed_pairIPcNS_9allocatorIcEEEC1B8ue170006IDnNS_18__default_init_tagEEEOT_OT0_, symObjAddr: 0x1D78C, symBinAddr: 0x10001DDB8, symSize: 0x3C }
  - { offsetInCU: 0x2FA94, offset: 0x2FA94, size: 0x8, addend: 0x0, symName: __ZNSt3__117__compressed_pairIPcNS_9allocatorIcEEEC2B8ue170006IDnNS_18__default_init_tagEEEOT_OT0_, symObjAddr: 0x1D7C8, symBinAddr: 0x10001DDF4, symSize: 0x40 }
  - { offsetInCU: 0x2FAEC, offset: 0x2FAEC, size: 0x8, addend: 0x0, symName: __ZNSt3__122__compressed_pair_elemIPcLi0ELb0EEC2B8ue170006IDnvEEOT_, symObjAddr: 0x1D808, symBinAddr: 0x10001DE34, symSize: 0x1C }
  - { offsetInCU: 0x2FB2E, offset: 0x2FB2E, size: 0x8, addend: 0x0, symName: __ZNSt3__16vectorIcNS_9allocatorIcEEED2B8ue170006Ev, symObjAddr: 0x1D824, symBinAddr: 0x10001DE50, symSize: 0x3C }
  - { offsetInCU: 0x2FB58, offset: 0x2FB58, size: 0x8, addend: 0x0, symName: __ZNSt3__16vectorIcNS_9allocatorIcEEE16__destroy_vectorC1B8ue170006ERS3_, symObjAddr: 0x1D860, symBinAddr: 0x10001DE8C, symSize: 0x34 }
  - { offsetInCU: 0x2FB91, offset: 0x2FB91, size: 0x8, addend: 0x0, symName: __ZNSt3__16vectorIcNS_9allocatorIcEEE16__destroy_vectorclB8ue170006Ev, symObjAddr: 0x1D894, symBinAddr: 0x10001DEC0, symSize: 0x90 }
  - { offsetInCU: 0x2FBB7, offset: 0x2FBB7, size: 0x8, addend: 0x0, symName: __ZNSt3__16vectorIcNS_9allocatorIcEEE16__destroy_vectorC2B8ue170006ERS3_, symObjAddr: 0x1D924, symBinAddr: 0x10001DF50, symSize: 0x20 }
  - { offsetInCU: 0x2FBF0, offset: 0x2FBF0, size: 0x8, addend: 0x0, symName: __ZNSt3__16vectorIcNS_9allocatorIcEEE7__clearB8ue170006Ev, symObjAddr: 0x1D944, symBinAddr: 0x10001DF70, symSize: 0x28 }
  - { offsetInCU: 0x2FC16, offset: 0x2FC16, size: 0x8, addend: 0x0, symName: __ZNKSt3__16vectorIcNS_9allocatorIcEEE17__annotate_deleteB8ue170006Ev, symObjAddr: 0x1D96C, symBinAddr: 0x10001DF98, symSize: 0xB8 }
  - { offsetInCU: 0x2FC3C, offset: 0x2FC3C, size: 0x8, addend: 0x0, symName: __ZNSt3__116allocator_traitsINS_9allocatorIcEEE10deallocateB8ue170006ERS2_Pcm, symObjAddr: 0x1DA24, symBinAddr: 0x10001E050, symSize: 0x34 }
  - { offsetInCU: 0x2FC7E, offset: 0x2FC7E, size: 0x8, addend: 0x0, symName: __ZNSt3__16vectorIcNS_9allocatorIcEEE7__allocB8ue170006Ev, symObjAddr: 0x1DA58, symBinAddr: 0x10001E084, symSize: 0x28 }
  - { offsetInCU: 0x2FCA4, offset: 0x2FCA4, size: 0x8, addend: 0x0, symName: __ZNKSt3__16vectorIcNS_9allocatorIcEEE8capacityB8ue170006Ev, symObjAddr: 0x1DA80, symBinAddr: 0x10001E0AC, symSize: 0x38 }
  - { offsetInCU: 0x2FCCA, offset: 0x2FCCA, size: 0x8, addend: 0x0, symName: __ZNSt3__16vectorIcNS_9allocatorIcEEE22__base_destruct_at_endB8ue170006EPc, symObjAddr: 0x1DAB8, symBinAddr: 0x10001E0E4, symSize: 0xA0 }
  - { offsetInCU: 0x2FD0E, offset: 0x2FD0E, size: 0x8, addend: 0x0, symName: __ZNSt3__116allocator_traitsINS_9allocatorIcEEE7destroyB8ue170006IcvEEvRS2_PT_, symObjAddr: 0x1DB58, symBinAddr: 0x10001E184, symSize: 0x2C }
  - { offsetInCU: 0x2FD4B, offset: 0x2FD4B, size: 0x8, addend: 0x0, symName: __ZNSt3__19allocatorIcE7destroyB8ue170006EPc, symObjAddr: 0x1DB84, symBinAddr: 0x10001E1B0, symSize: 0x14 }
  - { offsetInCU: 0x2FD7F, offset: 0x2FD7F, size: 0x8, addend: 0x0, symName: __ZNKSt3__16vectorIcNS_9allocatorIcEEE31__annotate_contiguous_containerB8ue170006EPKvS5_S5_S5_, symObjAddr: 0x1DB98, symBinAddr: 0x10001E1C4, symSize: 0x20 }
  - { offsetInCU: 0x2FDD1, offset: 0x2FDD1, size: 0x8, addend: 0x0, symName: __ZNKSt3__16vectorIcNS_9allocatorIcEEE4dataB8ue170006Ev, symObjAddr: 0x1DBB8, symBinAddr: 0x10001E1E4, symSize: 0x28 }
  - { offsetInCU: 0x2FDF7, offset: 0x2FDF7, size: 0x8, addend: 0x0, symName: __ZNSt3__19allocatorIcE10deallocateB8ue170006EPcm, symObjAddr: 0x1DBE0, symBinAddr: 0x10001E20C, symSize: 0x70 }
  - { offsetInCU: 0x2FE39, offset: 0x2FE39, size: 0x8, addend: 0x0, symName: __ZNSt3__117__compressed_pairIPcNS_9allocatorIcEEE6secondB8ue170006Ev, symObjAddr: 0x1DC50, symBinAddr: 0x10001E27C, symSize: 0x24 }
  - { offsetInCU: 0x2FE5F, offset: 0x2FE5F, size: 0x8, addend: 0x0, symName: __ZNKSt3__16vectorIcNS_9allocatorIcEEE9__end_capB8ue170006Ev, symObjAddr: 0x1DC74, symBinAddr: 0x10001E2A0, symSize: 0x28 }
  - { offsetInCU: 0x2FE85, offset: 0x2FE85, size: 0x8, addend: 0x0, symName: __ZNKSt3__117__compressed_pairIPcNS_9allocatorIcEEE5firstB8ue170006Ev, symObjAddr: 0x1DC9C, symBinAddr: 0x10001E2C8, symSize: 0x24 }
  - { offsetInCU: 0x2FEAB, offset: 0x2FEAB, size: 0x8, addend: 0x0, symName: __ZNKSt3__122__compressed_pair_elemIPcLi0ELb0EE5__getB8ue170006Ev, symObjAddr: 0x1DCC0, symBinAddr: 0x10001E2EC, symSize: 0x14 }
  - { offsetInCU: 0x2FED1, offset: 0x2FED1, size: 0x8, addend: 0x0, symName: __ZNSt3__16vectorI5tokenNS_9allocatorIS1_EEEC2B8ue170006Ev, symObjAddr: 0x1DCD4, symBinAddr: 0x10001E300, symSize: 0x44 }
  - { offsetInCU: 0x2FEFB, offset: 0x2FEFB, size: 0x8, addend: 0x0, symName: __ZNSt3__117__compressed_pairIP5tokenNS_9allocatorIS1_EEEC1B8ue170006IDnNS_18__default_init_tagEEEOT_OT0_, symObjAddr: 0x1DD18, symBinAddr: 0x10001E344, symSize: 0x3C }
  - { offsetInCU: 0x2FF53, offset: 0x2FF53, size: 0x8, addend: 0x0, symName: __ZNSt3__117__compressed_pairIP5tokenNS_9allocatorIS1_EEEC2B8ue170006IDnNS_18__default_init_tagEEEOT_OT0_, symObjAddr: 0x1DD54, symBinAddr: 0x10001E380, symSize: 0x40 }
  - { offsetInCU: 0x2FFAB, offset: 0x2FFAB, size: 0x8, addend: 0x0, symName: __ZNSt3__122__compressed_pair_elemINS_9allocatorI5tokenEELi1ELb1EEC2B8ue170006ENS_18__default_init_tagE, symObjAddr: 0x1DD94, symBinAddr: 0x10001E3C0, symSize: 0x2C }
  - { offsetInCU: 0x2FFDF, offset: 0x2FFDF, size: 0x8, addend: 0x0, symName: __ZNSt3__19allocatorI5tokenEC2B8ue170006Ev, symObjAddr: 0x1DDC0, symBinAddr: 0x10001E3EC, symSize: 0x2C }
  - { offsetInCU: 0x30009, offset: 0x30009, size: 0x8, addend: 0x0, symName: __ZNSt3__116__non_trivial_ifILb1ENS_9allocatorI5tokenEEEC2B8ue170006Ev, symObjAddr: 0x1DDEC, symBinAddr: 0x10001E418, symSize: 0x14 }
  - { offsetInCU: 0x30033, offset: 0x30033, size: 0x8, addend: 0x0, symName: __ZNSt3__16vectorIcNS_9allocatorIcEEE9__end_capB8ue170006Ev, symObjAddr: 0x1DE00, symBinAddr: 0x10001E42C, symSize: 0x28 }
  - { offsetInCU: 0x30059, offset: 0x30059, size: 0x8, addend: 0x0, symName: __ZNSt3__16vectorIcNS_9allocatorIcEEE22__construct_one_at_endB8ue170006IJRKcEEEvDpOT_, symObjAddr: 0x1DE28, symBinAddr: 0x10001E454, symSize: 0x98 }
  - { offsetInCU: 0x300A8, offset: 0x300A8, size: 0x8, addend: 0x0, symName: __ZNSt3__16vectorIcNS_9allocatorIcEEE21__push_back_slow_pathIRKcEEvOT_, symObjAddr: 0x1DEC0, symBinAddr: 0x10001E4EC, symSize: 0xE0 }
  - { offsetInCU: 0x30106, offset: 0x30106, size: 0x8, addend: 0x0, symName: __ZNSt3__117__compressed_pairIPcNS_9allocatorIcEEE5firstB8ue170006Ev, symObjAddr: 0x1DFA0, symBinAddr: 0x10001E5CC, symSize: 0x24 }
  - { offsetInCU: 0x3012C, offset: 0x3012C, size: 0x8, addend: 0x0, symName: __ZNSt3__122__compressed_pair_elemIPcLi0ELb0EE5__getB8ue170006Ev, symObjAddr: 0x1DFC4, symBinAddr: 0x10001E5F0, symSize: 0x14 }
  - { offsetInCU: 0x3016E, offset: 0x3016E, size: 0x8, addend: 0x0, symName: __ZNSt3__16vectorIcNS_9allocatorIcEEE21_ConstructTransactionC1B8ue170006ERS3_m, symObjAddr: 0x1DFD8, symBinAddr: 0x10001E604, symSize: 0x3C }
  - { offsetInCU: 0x301B6, offset: 0x301B6, size: 0x8, addend: 0x0, symName: __ZNSt3__116allocator_traitsINS_9allocatorIcEEE9constructB8ue170006IcJRKcEvEEvRS2_PT_DpOT0_, symObjAddr: 0x1E014, symBinAddr: 0x10001E640, symSize: 0x34 }
  - { offsetInCU: 0x3020D, offset: 0x3020D, size: 0x8, addend: 0x0, symName: __ZNSt3__16vectorIcNS_9allocatorIcEEE21_ConstructTransactionD1B8ue170006Ev, symObjAddr: 0x1E048, symBinAddr: 0x10001E674, symSize: 0x2C }
  - { offsetInCU: 0x30237, offset: 0x30237, size: 0x8, addend: 0x0, symName: __ZNSt3__16vectorIcNS_9allocatorIcEEE21_ConstructTransactionC2B8ue170006ERS3_m, symObjAddr: 0x1E074, symBinAddr: 0x10001E6A0, symSize: 0x44 }
  - { offsetInCU: 0x3027F, offset: 0x3027F, size: 0x8, addend: 0x0, symName: __ZNSt3__19allocatorIcE9constructB8ue170006IcJRKcEEEvPT_DpOT0_, symObjAddr: 0x1E0B8, symBinAddr: 0x10001E6E4, symSize: 0x28 }
  - { offsetInCU: 0x302D5, offset: 0x302D5, size: 0x8, addend: 0x0, symName: __ZNSt3__16vectorIcNS_9allocatorIcEEE21_ConstructTransactionD2B8ue170006Ev, symObjAddr: 0x1E0E0, symBinAddr: 0x10001E70C, symSize: 0x20 }
  - { offsetInCU: 0x302FF, offset: 0x302FF, size: 0x8, addend: 0x0, symName: __ZNKSt3__16vectorIcNS_9allocatorIcEEE11__recommendB8ue170006Em, symObjAddr: 0x1E100, symBinAddr: 0x10001E72C, symSize: 0xB4 }
  - { offsetInCU: 0x30354, offset: 0x30354, size: 0x8, addend: 0x0, symName: __ZNSt3__114__split_bufferIcRNS_9allocatorIcEEEC1EmmS3_, symObjAddr: 0x1E1B4, symBinAddr: 0x10001E7E0, symSize: 0x44 }
  - { offsetInCU: 0x303AA, offset: 0x303AA, size: 0x8, addend: 0x0, symName: __ZNSt3__114__split_bufferIcRNS_9allocatorIcEEED1Ev, symObjAddr: 0x1E308, symBinAddr: 0x10001E934, symSize: 0x2C }
  - { offsetInCU: 0x303D6, offset: 0x303D6, size: 0x8, addend: 0x0, symName: __ZNKSt3__16vectorIcNS_9allocatorIcEEE8max_sizeEv, symObjAddr: 0x1E334, symBinAddr: 0x10001E960, symSize: 0x74 }
  - { offsetInCU: 0x303FE, offset: 0x303FE, size: 0x8, addend: 0x0, symName: __ZNKSt3__16vectorIcNS_9allocatorIcEEE20__throw_length_errorB8ue170006Ev, symObjAddr: 0x1E3A8, symBinAddr: 0x10001E9D4, symSize: 0x1C }
  - { offsetInCU: 0x30424, offset: 0x30424, size: 0x8, addend: 0x0, symName: __ZNKSt3__16vectorIcNS_9allocatorIcEEE7__allocB8ue170006Ev, symObjAddr: 0x1E3C4, symBinAddr: 0x10001E9F0, symSize: 0x28 }
  - { offsetInCU: 0x3044A, offset: 0x3044A, size: 0x8, addend: 0x0, symName: __ZNKSt3__117__compressed_pairIPcNS_9allocatorIcEEE6secondB8ue170006Ev, symObjAddr: 0x1E3EC, symBinAddr: 0x10001EA18, symSize: 0x24 }
  - { offsetInCU: 0x30470, offset: 0x30470, size: 0x8, addend: 0x0, symName: __ZNSt3__114__split_bufferIcRNS_9allocatorIcEEEC2EmmS3_, symObjAddr: 0x1E410, symBinAddr: 0x10001EA3C, symSize: 0xD4 }
  - { offsetInCU: 0x304E3, offset: 0x304E3, size: 0x8, addend: 0x0, symName: __ZNSt3__117__compressed_pairIPcRNS_9allocatorIcEEEC1B8ue170006IDnS4_EEOT_OT0_, symObjAddr: 0x1E4E4, symBinAddr: 0x10001EB10, symSize: 0x3C }
  - { offsetInCU: 0x3053B, offset: 0x3053B, size: 0x8, addend: 0x0, symName: __ZNSt3__114__split_bufferIcRNS_9allocatorIcEEE7__allocB8ue170006Ev, symObjAddr: 0x1E560, symBinAddr: 0x10001EB8C, symSize: 0x28 }
  - { offsetInCU: 0x30561, offset: 0x30561, size: 0x8, addend: 0x0, symName: __ZNSt3__114__split_bufferIcRNS_9allocatorIcEEE9__end_capB8ue170006Ev, symObjAddr: 0x1E588, symBinAddr: 0x10001EBB4, symSize: 0x28 }
  - { offsetInCU: 0x30587, offset: 0x30587, size: 0x8, addend: 0x0, symName: __ZNSt3__117__compressed_pairIPcRNS_9allocatorIcEEEC2B8ue170006IDnS4_EEOT_OT0_, symObjAddr: 0x1E5B0, symBinAddr: 0x10001EBDC, symSize: 0x48 }
  - { offsetInCU: 0x305DF, offset: 0x305DF, size: 0x8, addend: 0x0, symName: __ZNSt3__122__compressed_pair_elemIRNS_9allocatorIcEELi1ELb0EEC2B8ue170006IS3_vEEOT_, symObjAddr: 0x1E5F8, symBinAddr: 0x10001EC24, symSize: 0x20 }
  - { offsetInCU: 0x30621, offset: 0x30621, size: 0x8, addend: 0x0, symName: __ZNSt3__117__compressed_pairIPcRNS_9allocatorIcEEE6secondB8ue170006Ev, symObjAddr: 0x1E618, symBinAddr: 0x10001EC44, symSize: 0x28 }
  - { offsetInCU: 0x30647, offset: 0x30647, size: 0x8, addend: 0x0, symName: __ZNSt3__122__compressed_pair_elemIRNS_9allocatorIcEELi1ELb0EE5__getB8ue170006Ev, symObjAddr: 0x1E640, symBinAddr: 0x10001EC6C, symSize: 0x18 }
  - { offsetInCU: 0x3066D, offset: 0x3066D, size: 0x8, addend: 0x0, symName: __ZNSt3__117__compressed_pairIPcRNS_9allocatorIcEEE5firstB8ue170006Ev, symObjAddr: 0x1E658, symBinAddr: 0x10001EC84, symSize: 0x24 }
  - { offsetInCU: 0x30693, offset: 0x30693, size: 0x8, addend: 0x0, symName: __ZNSt3__116reverse_iteratorIPcEC1B8ue170006ES1_, symObjAddr: 0x1E764, symBinAddr: 0x10001ED90, symSize: 0x34 }
  - { offsetInCU: 0x306CB, offset: 0x306CB, size: 0x8, addend: 0x0, symName: __ZNKSt3__116reverse_iteratorIPcE4baseB8ue170006Ev, symObjAddr: 0x1E798, symBinAddr: 0x10001EDC4, symSize: 0x18 }
  - { offsetInCU: 0x306F1, offset: 0x306F1, size: 0x8, addend: 0x0, symName: __ZNKSt3__16vectorIcNS_9allocatorIcEEE14__annotate_newB8ue170006Em, symObjAddr: 0x1E7EC, symBinAddr: 0x10001EE18, symSize: 0xAC }
  - { offsetInCU: 0x30726, offset: 0x30726, size: 0x8, addend: 0x0, symName: __ZNKSt3__116reverse_iteratorIPcEdeB8ue170006Ev, symObjAddr: 0x1E930, symBinAddr: 0x10001EF5C, symSize: 0x28 }
  - { offsetInCU: 0x3075A, offset: 0x3075A, size: 0x8, addend: 0x0, symName: __ZNSt3__116reverse_iteratorIPcEppB8ue170006Ev, symObjAddr: 0x1E958, symBinAddr: 0x10001EF84, symSize: 0x20 }
  - { offsetInCU: 0x30786, offset: 0x30786, size: 0x8, addend: 0x0, symName: __ZNSt3__119__to_address_helperINS_16reverse_iteratorIPcEEvE6__callB8ue170006ERKS3_, symObjAddr: 0x1E9F0, symBinAddr: 0x10001F01C, symSize: 0x4C }
  - { offsetInCU: 0x307A9, offset: 0x307A9, size: 0x8, addend: 0x0, symName: __ZNKSt3__116reverse_iteratorIPcEptB8ue170006Ev, symObjAddr: 0x1EA3C, symBinAddr: 0x10001F068, symSize: 0x24 }
  - { offsetInCU: 0x307EC, offset: 0x307EC, size: 0x8, addend: 0x0, symName: __ZNKSt3__111__move_loopINS_17_ClassicAlgPolicyEEclB8ue170006INS_16reverse_iteratorIPcEES6_S6_EENS_4pairIT_T1_EES8_T0_S9_, symObjAddr: 0x1ECD8, symBinAddr: 0x10001F304, symSize: 0xA0 }
  - { offsetInCU: 0x3085D, offset: 0x3085D, size: 0x8, addend: 0x0, symName: __ZNSt3__18_IterOpsINS_17_ClassicAlgPolicyEE11__iter_moveB8ue170006IRNS_16reverse_iteratorIPcEEEENS_9enable_ifIXsr12is_referenceIDTdeclsr3stdE7declvalIRT_EEEEE5valueEDTclsr3stdE4movedeclsr3stdE7declvalISA_EEEEE4typeEOS9_, symObjAddr: 0x1EED8, symBinAddr: 0x10001F504, symSize: 0x28 }
  - { offsetInCU: 0x30889, offset: 0x30889, size: 0x8, addend: 0x0, symName: __ZNSt3__18_IterOpsINS_17_ClassicAlgPolicyEE25__validate_iter_referenceB8ue170006IRNS_16reverse_iteratorIPcEEEEvv, symObjAddr: 0x1EF00, symBinAddr: 0x10001F52C, symSize: 0x4 }
  - { offsetInCU: 0x308A7, offset: 0x308A7, size: 0x8, addend: 0x0, symName: __ZNSt3__118__unwrap_iter_implINS_16reverse_iteratorIPcEELb0EE8__unwrapB8ue170006ES3_, symObjAddr: 0x1EF04, symBinAddr: 0x10001F530, symSize: 0x24 }
  - { offsetInCU: 0x308CA, offset: 0x308CA, size: 0x8, addend: 0x0, symName: __ZNSt3__14pairINS_16reverse_iteratorIPcEES3_EC1B8ue170006ERKS3_S6_, symObjAddr: 0x1EF28, symBinAddr: 0x10001F554, symSize: 0x3C }
  - { offsetInCU: 0x30910, offset: 0x30910, size: 0x8, addend: 0x0, symName: __ZNSt3__14pairINS_16reverse_iteratorIPcEES3_EC2B8ue170006ERKS3_S6_, symObjAddr: 0x1EF64, symBinAddr: 0x10001F590, symSize: 0x34 }
  - { offsetInCU: 0x30956, offset: 0x30956, size: 0x8, addend: 0x0, symName: __ZNSt3__118__unwrap_iter_implINS_16reverse_iteratorIPcEELb0EE8__rewrapB8ue170006ES3_S3_, symObjAddr: 0x1EF98, symBinAddr: 0x10001F5C4, symSize: 0x2C }
  - { offsetInCU: 0x30983, offset: 0x30983, size: 0x8, addend: 0x0, symName: __ZNSt3__116reverse_iteratorIPcEC2B8ue170006ES1_, symObjAddr: 0x1EFC4, symBinAddr: 0x10001F5F0, symSize: 0x28 }
  - { offsetInCU: 0x309BB, offset: 0x309BB, size: 0x8, addend: 0x0, symName: __ZNSt3__114__split_bufferIcRNS_9allocatorIcEEED2Ev, symObjAddr: 0x1EFEC, symBinAddr: 0x10001F618, symSize: 0x80 }
  - { offsetInCU: 0x309E7, offset: 0x309E7, size: 0x8, addend: 0x0, symName: __ZNSt3__114__split_bufferIcRNS_9allocatorIcEEE5clearB8ue170006Ev, symObjAddr: 0x1F06C, symBinAddr: 0x10001F698, symSize: 0x28 }
  - { offsetInCU: 0x30A0D, offset: 0x30A0D, size: 0x8, addend: 0x0, symName: __ZNKSt3__114__split_bufferIcRNS_9allocatorIcEEE8capacityB8ue170006Ev, symObjAddr: 0x1F094, symBinAddr: 0x10001F6C0, symSize: 0x38 }
  - { offsetInCU: 0x30A33, offset: 0x30A33, size: 0x8, addend: 0x0, symName: __ZNSt3__114__split_bufferIcRNS_9allocatorIcEEE17__destruct_at_endB8ue170006EPc, symObjAddr: 0x1F0CC, symBinAddr: 0x10001F6F8, symSize: 0x2C }
  - { offsetInCU: 0x30A67, offset: 0x30A67, size: 0x8, addend: 0x0, symName: __ZNSt3__114__split_bufferIcRNS_9allocatorIcEEE17__destruct_at_endB8ue170006EPcNS_17integral_constantIbLb0EEE, symObjAddr: 0x1F0F8, symBinAddr: 0x10001F724, symSize: 0x94 }
  - { offsetInCU: 0x30AA7, offset: 0x30AA7, size: 0x8, addend: 0x0, symName: __ZNKSt3__114__split_bufferIcRNS_9allocatorIcEEE9__end_capB8ue170006Ev, symObjAddr: 0x1F18C, symBinAddr: 0x10001F7B8, symSize: 0x28 }
  - { offsetInCU: 0x30ACD, offset: 0x30ACD, size: 0x8, addend: 0x0, symName: __ZNKSt3__117__compressed_pairIPcRNS_9allocatorIcEEE5firstB8ue170006Ev, symObjAddr: 0x1F1B4, symBinAddr: 0x10001F7E0, symSize: 0x24 }
  - { offsetInCU: 0x30AF3, offset: 0x30AF3, size: 0x8, addend: 0x0, symName: __ZNSt3__16vectorIcNS_9allocatorIcEEE17__destruct_at_endB8ue170006EPc, symObjAddr: 0x1F1D8, symBinAddr: 0x10001F804, symSize: 0x4C }
  - { offsetInCU: 0x30B37, offset: 0x30B37, size: 0x8, addend: 0x0, symName: __ZNKSt3__16vectorIcNS_9allocatorIcEEE17__annotate_shrinkB8ue170006Em, symObjAddr: 0x1F224, symBinAddr: 0x10001F850, symSize: 0xB4 }
  - { offsetInCU: 0x30B6C, offset: 0x30B6C, size: 0x8, addend: 0x0, symName: __ZNSt3__16vectorI5tokenNS_9allocatorIS1_EEE22__construct_one_at_endB8ue170006IJRKS1_EEEvDpOT_, symObjAddr: 0x1F2D8, symBinAddr: 0x10001F904, symSize: 0x98 }
  - { offsetInCU: 0x30BBB, offset: 0x30BBB, size: 0x8, addend: 0x0, symName: __ZNSt3__16vectorI5tokenNS_9allocatorIS1_EEE21__push_back_slow_pathIRKS1_EEvOT_, symObjAddr: 0x1F370, symBinAddr: 0x10001F99C, symSize: 0xE0 }
  - { offsetInCU: 0x30C19, offset: 0x30C19, size: 0x8, addend: 0x0, symName: __ZNSt3__116allocator_traitsINS_9allocatorI5tokenEEE9constructB8ue170006IS2_JRKS2_EvEEvRS3_PT_DpOT0_, symObjAddr: 0x1F450, symBinAddr: 0x10001FA7C, symSize: 0x34 }
  - { offsetInCU: 0x30C70, offset: 0x30C70, size: 0x8, addend: 0x0, symName: __ZNSt3__19allocatorI5tokenE9constructB8ue170006IS1_JRKS1_EEEvPT_DpOT0_, symObjAddr: 0x1F484, symBinAddr: 0x10001FAB0, symSize: 0x30 }
  - { offsetInCU: 0x30CC6, offset: 0x30CC6, size: 0x8, addend: 0x0, symName: __ZNKSt3__16vectorI5tokenNS_9allocatorIS1_EEE11__recommendB8ue170006Em, symObjAddr: 0x1F4B4, symBinAddr: 0x10001FAE0, symSize: 0xB4 }
  - { offsetInCU: 0x30D1B, offset: 0x30D1B, size: 0x8, addend: 0x0, symName: __ZNSt3__114__split_bufferI5tokenRNS_9allocatorIS1_EEEC1EmmS4_, symObjAddr: 0x1F568, symBinAddr: 0x10001FB94, symSize: 0x44 }
  - { offsetInCU: 0x30D71, offset: 0x30D71, size: 0x8, addend: 0x0, symName: __ZNSt3__114__split_bufferI5tokenRNS_9allocatorIS1_EEED1Ev, symObjAddr: 0x1F6BC, symBinAddr: 0x10001FCE8, symSize: 0x2C }
  - { offsetInCU: 0x30D9D, offset: 0x30D9D, size: 0x8, addend: 0x0, symName: __ZNSt3__114__split_bufferI5tokenRNS_9allocatorIS1_EEEC2EmmS4_, symObjAddr: 0x1F6E8, symBinAddr: 0x10001FD14, symSize: 0xE0 }
  - { offsetInCU: 0x30E10, offset: 0x30E10, size: 0x8, addend: 0x0, symName: __ZNSt3__117__compressed_pairIP5tokenRNS_9allocatorIS1_EEEC1B8ue170006IDnS5_EEOT_OT0_, symObjAddr: 0x1F7C8, symBinAddr: 0x10001FDF4, symSize: 0x3C }
  - { offsetInCU: 0x30E68, offset: 0x30E68, size: 0x8, addend: 0x0, symName: __ZNSt3__114__split_bufferI5tokenRNS_9allocatorIS1_EEE7__allocB8ue170006Ev, symObjAddr: 0x1F804, symBinAddr: 0x10001FE30, symSize: 0x28 }
  - { offsetInCU: 0x30E8E, offset: 0x30E8E, size: 0x8, addend: 0x0, symName: __ZNSt3__114__split_bufferI5tokenRNS_9allocatorIS1_EEE9__end_capB8ue170006Ev, symObjAddr: 0x1F82C, symBinAddr: 0x10001FE58, symSize: 0x28 }
  - { offsetInCU: 0x30EB4, offset: 0x30EB4, size: 0x8, addend: 0x0, symName: __ZNSt3__117__compressed_pairIP5tokenRNS_9allocatorIS1_EEEC2B8ue170006IDnS5_EEOT_OT0_, symObjAddr: 0x1F854, symBinAddr: 0x10001FE80, symSize: 0x48 }
  - { offsetInCU: 0x30F0C, offset: 0x30F0C, size: 0x8, addend: 0x0, symName: __ZNSt3__122__compressed_pair_elemIRNS_9allocatorI5tokenEELi1ELb0EEC2B8ue170006IS4_vEEOT_, symObjAddr: 0x1F89C, symBinAddr: 0x10001FEC8, symSize: 0x20 }
  - { offsetInCU: 0x30F4E, offset: 0x30F4E, size: 0x8, addend: 0x0, symName: __ZNSt3__117__compressed_pairIP5tokenRNS_9allocatorIS1_EEE6secondB8ue170006Ev, symObjAddr: 0x1F8BC, symBinAddr: 0x10001FEE8, symSize: 0x28 }
  - { offsetInCU: 0x30F74, offset: 0x30F74, size: 0x8, addend: 0x0, symName: __ZNSt3__122__compressed_pair_elemIRNS_9allocatorI5tokenEELi1ELb0EE5__getB8ue170006Ev, symObjAddr: 0x1F8E4, symBinAddr: 0x10001FF10, symSize: 0x18 }
  - { offsetInCU: 0x30F9A, offset: 0x30F9A, size: 0x8, addend: 0x0, symName: __ZNSt3__117__compressed_pairIP5tokenRNS_9allocatorIS1_EEE5firstB8ue170006Ev, symObjAddr: 0x1F8FC, symBinAddr: 0x10001FF28, symSize: 0x24 }
  - { offsetInCU: 0x30FC0, offset: 0x30FC0, size: 0x8, addend: 0x0, symName: __ZNSt3__129_AllocatorDestroyRangeReverseINS_9allocatorI5tokenEENS_16reverse_iteratorIPS2_EEEC1B8ue170006ERS3_RS6_S9_, symObjAddr: 0x1FACC, symBinAddr: 0x1000200F8, symSize: 0x44 }
  - { offsetInCU: 0x31017, offset: 0x31017, size: 0x8, addend: 0x0, symName: __ZNSt3__128__exception_guard_exceptionsINS_29_AllocatorDestroyRangeReverseINS_9allocatorI5tokenEENS_16reverse_iteratorIPS3_EEEEE10__completeB8ue170006Ev, symObjAddr: 0x1FB10, symBinAddr: 0x10002013C, symSize: 0x1C }
  - { offsetInCU: 0x3103D, offset: 0x3103D, size: 0x8, addend: 0x0, symName: __ZNSt3__128__exception_guard_exceptionsINS_29_AllocatorDestroyRangeReverseINS_9allocatorI5tokenEENS_16reverse_iteratorIPS3_EEEEED1B8ue170006Ev, symObjAddr: 0x1FB2C, symBinAddr: 0x100020158, symSize: 0x2C }
  - { offsetInCU: 0x31067, offset: 0x31067, size: 0x8, addend: 0x0, symName: __ZNSt3__128__exception_guard_exceptionsINS_29_AllocatorDestroyRangeReverseINS_9allocatorI5tokenEENS_16reverse_iteratorIPS3_EEEEEC1B8ue170006ES8_, symObjAddr: 0x1FB58, symBinAddr: 0x100020184, symSize: 0x34 }
  - { offsetInCU: 0x310A0, offset: 0x310A0, size: 0x8, addend: 0x0, symName: __ZNSt3__128__exception_guard_exceptionsINS_29_AllocatorDestroyRangeReverseINS_9allocatorI5tokenEENS_16reverse_iteratorIPS3_EEEEEC2B8ue170006ES8_, symObjAddr: 0x1FB8C, symBinAddr: 0x1000201B8, symSize: 0x30 }
  - { offsetInCU: 0x310D9, offset: 0x310D9, size: 0x8, addend: 0x0, symName: __ZNSt3__129_AllocatorDestroyRangeReverseINS_9allocatorI5tokenEENS_16reverse_iteratorIPS2_EEEC2B8ue170006ERS3_RS6_S9_, symObjAddr: 0x1FBBC, symBinAddr: 0x1000201E8, symSize: 0x38 }
  - { offsetInCU: 0x31130, offset: 0x31130, size: 0x8, addend: 0x0, symName: __ZNSt3__128__exception_guard_exceptionsINS_29_AllocatorDestroyRangeReverseINS_9allocatorI5tokenEENS_16reverse_iteratorIPS3_EEEEED2B8ue170006Ev, symObjAddr: 0x1FBF4, symBinAddr: 0x100020220, symSize: 0x48 }
  - { offsetInCU: 0x3115A, offset: 0x3115A, size: 0x8, addend: 0x0, symName: __ZNKSt3__129_AllocatorDestroyRangeReverseINS_9allocatorI5tokenEENS_16reverse_iteratorIPS2_EEEclB8ue170006Ev, symObjAddr: 0x1FC3C, symBinAddr: 0x100020268, symSize: 0xB4 }
  - { offsetInCU: 0x31181, offset: 0x31181, size: 0x8, addend: 0x0, symName: __ZNSt3__116reverse_iteratorINS0_IP5tokenEEEC1B8ue170006ES3_, symObjAddr: 0x1FD60, symBinAddr: 0x10002038C, symSize: 0x3C }
  - { offsetInCU: 0x311B9, offset: 0x311B9, size: 0x8, addend: 0x0, symName: __ZNSt3__116reverse_iteratorINS0_IP5tokenEEEppB8ue170006Ev, symObjAddr: 0x1FE20, symBinAddr: 0x10002044C, symSize: 0x30 }
  - { offsetInCU: 0x311DF, offset: 0x311DF, size: 0x8, addend: 0x0, symName: __ZNKSt3__116reverse_iteratorINS0_IP5tokenEEE4baseB8ue170006Ev, symObjAddr: 0x1FE50, symBinAddr: 0x10002047C, symSize: 0x24 }
  - { offsetInCU: 0x3120B, offset: 0x3120B, size: 0x8, addend: 0x0, symName: __ZNSt3__119__to_address_helperINS_16reverse_iteratorINS1_IP5tokenEEEEvE6__callB8ue170006ERKS5_, symObjAddr: 0x1FE74, symBinAddr: 0x1000204A0, symSize: 0x4C }
  - { offsetInCU: 0x3122E, offset: 0x3122E, size: 0x8, addend: 0x0, symName: __ZNKSt3__116reverse_iteratorINS0_IP5tokenEEEptB8ue170006Ev, symObjAddr: 0x1FEC0, symBinAddr: 0x1000204EC, symSize: 0x24 }
  - { offsetInCU: 0x31254, offset: 0x31254, size: 0x8, addend: 0x0, symName: __ZNKSt3__116reverse_iteratorINS0_IP5tokenEEEdeB8ue170006Ev, symObjAddr: 0x1FEE4, symBinAddr: 0x100020510, symSize: 0x34 }
  - { offsetInCU: 0x31288, offset: 0x31288, size: 0x8, addend: 0x0, symName: __ZNSt3__116reverse_iteratorIP5tokenEmmB8ue170006Ev, symObjAddr: 0x1FF18, symBinAddr: 0x100020544, symSize: 0x20 }
  - { offsetInCU: 0x312AE, offset: 0x312AE, size: 0x8, addend: 0x0, symName: __ZNSt3__116reverse_iteratorINS0_IP5tokenEEEC2B8ue170006ES3_, symObjAddr: 0x1FF38, symBinAddr: 0x100020564, symSize: 0x2C }
  - { offsetInCU: 0x312E6, offset: 0x312E6, size: 0x8, addend: 0x0, symName: __ZNSt3__114__split_bufferI5tokenRNS_9allocatorIS1_EEED2Ev, symObjAddr: 0x1FF64, symBinAddr: 0x100020590, symSize: 0x80 }
  - { offsetInCU: 0x31312, offset: 0x31312, size: 0x8, addend: 0x0, symName: __ZNSt3__114__split_bufferI5tokenRNS_9allocatorIS1_EEE5clearB8ue170006Ev, symObjAddr: 0x1FFE4, symBinAddr: 0x100020610, symSize: 0x28 }
  - { offsetInCU: 0x31338, offset: 0x31338, size: 0x8, addend: 0x0, symName: __ZNKSt3__114__split_bufferI5tokenRNS_9allocatorIS1_EEE8capacityB8ue170006Ev, symObjAddr: 0x2000C, symBinAddr: 0x100020638, symSize: 0x40 }
  - { offsetInCU: 0x3135E, offset: 0x3135E, size: 0x8, addend: 0x0, symName: __ZNSt3__114__split_bufferI5tokenRNS_9allocatorIS1_EEE17__destruct_at_endB8ue170006EPS1_, symObjAddr: 0x2004C, symBinAddr: 0x100020678, symSize: 0x2C }
  - { offsetInCU: 0x31392, offset: 0x31392, size: 0x8, addend: 0x0, symName: __ZNSt3__114__split_bufferI5tokenRNS_9allocatorIS1_EEE17__destruct_at_endB8ue170006EPS1_NS_17integral_constantIbLb0EEE, symObjAddr: 0x20078, symBinAddr: 0x1000206A4, symSize: 0x94 }
  - { offsetInCU: 0x313D2, offset: 0x313D2, size: 0x8, addend: 0x0, symName: __ZNKSt3__114__split_bufferI5tokenRNS_9allocatorIS1_EEE9__end_capB8ue170006Ev, symObjAddr: 0x2010C, symBinAddr: 0x100020738, symSize: 0x28 }
  - { offsetInCU: 0x313F8, offset: 0x313F8, size: 0x8, addend: 0x0, symName: __ZNKSt3__117__compressed_pairIP5tokenRNS_9allocatorIS1_EEE5firstB8ue170006Ev, symObjAddr: 0x20134, symBinAddr: 0x100020760, symSize: 0x24 }
  - { offsetInCU: 0x3141E, offset: 0x3141E, size: 0x8, addend: 0x0, symName: __ZNSt3__111char_traitsIcE6assignB8ue170006ERcRKc, symObjAddr: 0x20158, symBinAddr: 0x100020784, symSize: 0x24 }
  - { offsetInCU: 0x3144F, offset: 0x3144F, size: 0x8, addend: 0x0, symName: __ZNSt3__19allocatorIcEC1B8ue170006Ev, symObjAddr: 0x2017C, symBinAddr: 0x1000207A8, symSize: 0x2C }
  - { offsetInCU: 0x31479, offset: 0x31479, size: 0x8, addend: 0x0, symName: __ZNSt3__112basic_stringIcNS_11char_traitsIcEENS_9allocatorIcEEEC2B8ue170006Emc, symObjAddr: 0x201A8, symBinAddr: 0x1000207D4, symSize: 0x4C }
  - { offsetInCU: 0x314C1, offset: 0x314C1, size: 0x8, addend: 0x0, symName: __ZNSt3__111char_traitsIcE2eqEcc, symObjAddr: 0x20428, symBinAddr: 0x100020A54, symSize: 0x28 }
...
